; ModuleID = '9ky4864jwt4s7qcfmy9jjwfzw'
source_filename = "9ky4864jwt4s7qcfmy9jjwfzw"
target datalayout = "e-m:e-p270:32:32-p271:32:32-p272:64:64-i64:64-i128:128-f80:128-n8:16:32:64-S128"
target triple = "x86_64-unknown-linux-gnu"

%"alloc::string::String" = type { %"alloc::vec::Vec<u8>" }
%"alloc::vec::Vec<u8>" = type { %"alloc::raw_vec::RawVec<u8>", i64 }
%"alloc::raw_vec::RawVec<u8>" = type { %"alloc::raw_vec::RawVecInner", %"core::marker::PhantomData<u8>" }
%"alloc::raw_vec::RawVecInner" = type { i64, ptr, %"alloc::alloc::Global" }
%"alloc::alloc::Global" = type {}
%"core::marker::PhantomData<u8>" = type {}
%"std::ffi::os_str::OsString" = type { %"std::sys::os_str::bytes::Buf" }
%"std::sys::os_str::bytes::Buf" = type { %"alloc::vec::Vec<u8>" }
%"core::fmt::rt::Argument<'_>" = type { %"core::fmt::rt::ArgumentType<'_>" }
%"core::fmt::rt::ArgumentType<'_>" = type { ptr, [1 x i64] }

@alloc_ec595fc0e82ef92fc59bd74f68296eae = private unnamed_addr constant <{ [73 x i8] }> <{ [73 x i8] c"assertion failed: 0 < pointee_size && pointee_size <= isize::MAX as usize" }>, align 1
@alloc_80158afc0e0659a16e34957c73f8dc0e = private unnamed_addr constant <{ [116 x i8] }> <{ [116 x i8] c"/home/agao/.rustup/toolchains/stable-x86_64-unknown-linux-gnu/lib/rustlib/src/rust/library/core/src/ptr/const_ptr.rs" }>, align 1
@alloc_ab1ac9d746971d7a8a1e50e6492bd5e1 = private unnamed_addr constant <{ ptr, [16 x i8] }> <{ ptr @alloc_80158afc0e0659a16e34957c73f8dc0e, [16 x i8] c"t\00\00\00\00\00\00\00!\03\00\00\09\00\00\00" }>, align 8
@alloc_31365cfefba383c4d2bf6b6a04cc10aa = private unnamed_addr constant <{ [17 x i8] }> <{ [17 x i8] c"capacity overflow" }>, align 1
@alloc_11d257f5ed6cc7fc38feaa801053bac6 = private unnamed_addr constant <{ ptr, [8 x i8] }> <{ ptr @alloc_31365cfefba383c4d2bf6b6a04cc10aa, [8 x i8] c"\11\00\00\00\00\00\00\00" }>, align 8
@0 = private unnamed_addr constant <{ [8 x i8], [8 x i8] }> <{ [8 x i8] zeroinitializer, [8 x i8] undef }>, align 8
@alloc_423aa3b6c6652843f74515eef8a4d977 = private unnamed_addr constant <{ [42 x i8] }> <{ [42 x i8] c"UniformSampler::sample_single: low >= high" }>, align 1
@alloc_413efac68a6cb8412ab2d2986e6cdc48 = private unnamed_addr constant <{ [103 x i8] }> <{ [103 x i8] c"/home/agao/.cargo/registry/src/index.crates.io-6f17d22bba15001f/rand-0.8.5/src/distributions/uniform.rs" }>, align 1
@alloc_63bc32bb730b9e443af34950742b3642 = private unnamed_addr constant <{ ptr, [16 x i8] }> <{ ptr @alloc_413efac68a6cb8412ab2d2986e6cdc48, [16 x i8] c"g\00\00\00\00\00\00\001\02\00\00\01\00\00\00" }>, align 8
@alloc_954c2ef7b232b8f82cd1a3a8aa768241 = private unnamed_addr constant <{ [51 x i8] }> <{ [51 x i8] c"UniformSampler::sample_single_inclusive: low > high" }>, align 1
@alloc_46f6dde62025dfa9cb190716952570c6 = private unnamed_addr constant <{ ptr, [16 x i8] }> <{ ptr @alloc_413efac68a6cb8412ab2d2986e6cdc48, [16 x i8] c"g\00\00\00\00\00\00\009\02\00\00\01\00\00\00" }>, align 8
@vtable.0 = private constant <{ [24 x i8], ptr, ptr, ptr }> <{ [24 x i8] c"\00\00\00\00\00\00\00\00\08\00\00\00\00\00\00\00\08\00\00\00\00\00\00\00", ptr @"_ZN4core3ops8function6FnOnce40call_once$u7b$$u7b$vtable.shim$u7d$$u7d$17hf15ef0b6cb54f630E", ptr @"_ZN3std2rt10lang_start28_$u7b$$u7b$closure$u7d$$u7d$17h317b6f8001531df8E", ptr @"_ZN3std2rt10lang_start28_$u7b$$u7b$closure$u7d$$u7d$17h317b6f8001531df8E" }>, align 8, !dbg !0
@alloc_a88397d4c10a1ce96a7de6f6f4eca98f = private unnamed_addr constant <{ [110 x i8] }> <{ [110 x i8] c"/home/agao/.rustup/toolchains/stable-x86_64-unknown-linux-gnu/lib/rustlib/src/rust/library/core/src/num/mod.rs" }>, align 1
@alloc_565b5f4f7b4cd3b9729de2c1b4f45e8f = private unnamed_addr constant <{ ptr, [16 x i8] }> <{ ptr @alloc_a88397d4c10a1ce96a7de6f6f4eca98f, [16 x i8] c"n\00\00\00\00\00\00\00I\06\00\00\01\00\00\00" }>, align 8
@alloc_289b84035b3220255b84b8869a538376 = private unnamed_addr constant <{ [69 x i8] }> <{ [69 x i8] c"unsafe precondition(s) violated: usize::unchecked_add cannot overflow" }>, align 1
@alloc_7efb3a7632b3620f628ce83a521b4d9b = private unnamed_addr constant <{ [71 x i8] }> <{ [71 x i8] c"unsafe precondition(s) violated: ptr::sub_ptr requires `self >= origin`" }>, align 1
@alloc_78b6a49e36fe808e0ef950c2feb9fafc = private unnamed_addr constant <{ [71 x i8] }> <{ [71 x i8] c"to_digit: invalid radix -- radix must be in the range 2 to 36 inclusive" }>, align 1
@alloc_708eb9f2492b697e0d761b647be5d46c = private unnamed_addr constant <{ ptr, [8 x i8] }> <{ ptr @alloc_78b6a49e36fe808e0ef950c2feb9fafc, [8 x i8] c"G\00\00\00\00\00\00\00" }>, align 8
@alloc_71134f8a09deb0c4139306cf12487876 = private unnamed_addr constant <{ [115 x i8] }> <{ [115 x i8] c"/home/agao/.rustup/toolchains/stable-x86_64-unknown-linux-gnu/lib/rustlib/src/rust/library/core/src/char/methods.rs" }>, align 1
@alloc_b348e9f225e28265455142b51d4e8674 = private unnamed_addr constant <{ ptr, [16 x i8] }> <{ ptr @alloc_71134f8a09deb0c4139306cf12487876, [16 x i8] c"s\00\00\00\00\00\00\00\87\01\00\00\09\00\00\00" }>, align 8
@1 = private unnamed_addr constant <{ [4 x i8], [4 x i8] }> <{ [4 x i8] zeroinitializer, [4 x i8] undef }>, align 4
@alloc_ab14703751a9eb3585c49b2e55e9a9e5 = private unnamed_addr constant <{ [104 x i8] }> <{ [104 x i8] c"unsafe precondition(s) violated: hint::assert_unchecked must never be called when the condition is false" }>, align 1
@2 = private unnamed_addr constant <{ [16 x i8] }> <{ [16 x i8] c"\01\00\00\00\00\00\00\00\00\00\00\00\00\00\00\00" }>, align 8
@alloc_3bdcbc8286dd263460f12ed4b60983dd = private unnamed_addr constant <{ [125 x i8] }> <{ [125 x i8] c"/home/agao/.rustup/toolchains/stable-x86_64-unknown-linux-gnu/lib/rustlib/src/rust/library/core/src/iter/traits/exact_size.rs" }>, align 1
@alloc_c8dbbe184416f818291635d2448bc5ee = private unnamed_addr constant <{ ptr, [16 x i8] }> <{ ptr @alloc_3bdcbc8286dd263460f12ed4b60983dd, [16 x i8] c"}\00\00\00\00\00\00\00z\00\00\00\09\00\00\00" }>, align 8
@alloc_4512ea4d70b3230c29e1064b2aeca84b = private unnamed_addr constant <{ [123 x i8] }> <{ [123 x i8] c"/home/agao/.rustup/toolchains/stable-x86_64-unknown-linux-gnu/lib/rustlib/src/rust/library/core/src/iter/traits/iterator.rs" }>, align 1
@alloc_1c42992998313cbe7715ffca55c09a5f = private unnamed_addr constant <{ ptr, [16 x i8] }> <{ ptr @alloc_4512ea4d70b3230c29e1064b2aeca84b, [16 x i8] c"{\00\00\00\00\00\00\00\B3\07\00\00\09\00\00\00" }>, align 8
@alloc_fad0cd83b7d1858a846a172eb260e593 = private unnamed_addr constant <{ [42 x i8] }> <{ [42 x i8] c"is_aligned_to: align is not a power-of-two" }>, align 1
@alloc_e92e94d0ff530782b571cfd99ec66aef = private unnamed_addr constant <{ ptr, [8 x i8] }> <{ ptr @alloc_fad0cd83b7d1858a846a172eb260e593, [8 x i8] c"*\00\00\00\00\00\00\00" }>, align 8
@alloc_971ccb48895fd35e3ceaf9cf035c934e = private unnamed_addr constant <{ [112 x i8] }> <{ [112 x i8] c"/home/agao/.rustup/toolchains/stable-x86_64-unknown-linux-gnu/lib/rustlib/src/rust/library/core/src/ub_checks.rs" }>, align 1
@alloc_961d229a97eb253004ac7eff9079dfa9 = private unnamed_addr constant <{ ptr, [16 x i8] }> <{ ptr @alloc_971ccb48895fd35e3ceaf9cf035c934e, [16 x i8] c"p\00\00\00\00\00\00\00\88\00\00\006\00\00\00" }>, align 8
@alloc_11195730e5236cfdc15ea13be1c301f9 = private unnamed_addr constant <{ [162 x i8] }> <{ [162 x i8] c"unsafe precondition(s) violated: slice::from_raw_parts requires the pointer to be aligned and non-null, and the total size of the slice not to exceed `isize::MAX`" }>, align 1
@alloc_868b3c2f5328c5aeda6cf9c93e10b7e9 = private unnamed_addr constant <{ ptr, [16 x i8] }> <{ ptr @alloc_80158afc0e0659a16e34957c73f8dc0e, [16 x i8] c"t\00\00\00\00\00\00\00\C8\05\00\00\0D\00\00\00" }>, align 8
@vtable.1 = private constant <{ [24 x i8], ptr }> <{ [24 x i8] c"\00\00\00\00\00\00\00\00\08\00\00\00\00\00\00\00\08\00\00\00\00\00\00\00", ptr @"_ZN42_$LT$$RF$T$u20$as$u20$core..fmt..Debug$GT$3fmt17h078d54dbaff3d897E" }>, align 8, !dbg !24
@alloc_da16f3811c01dd681e4b4fd5bd2b8133 = private unnamed_addr constant <{ [25 x i8] }> <{ [25 x i8] c"cannot sample empty range" }>, align 1
@alloc_3f3a249d03b28c4484f2f7301e031fe9 = private unnamed_addr constant <{ [85 x i8] }> <{ [85 x i8] c"/home/agao/.cargo/registry/src/index.crates.io-6f17d22bba15001f/rand-0.8.5/src/rng.rs" }>, align 1
@alloc_9cd229247c449f942408081886624a2d = private unnamed_addr constant <{ ptr, [16 x i8] }> <{ ptr @alloc_3f3a249d03b28c4484f2f7301e031fe9, [16 x i8] c"U\00\00\00\00\00\00\00\86\00\00\00\09\00\00\00" }>, align 8
@alloc_0e04792c42b6f73201faf4ee17426000 = private unnamed_addr constant <{ [46 x i8] }> <{ [46 x i8] c"TrustedLen iterator's size hint is not exact: " }>, align 1
@alloc_f0c0bcdc51174ae2a47538e8553750ac = private unnamed_addr constant <{ ptr, [8 x i8] }> <{ ptr @alloc_0e04792c42b6f73201faf4ee17426000, [8 x i8] c".\00\00\00\00\00\00\00" }>, align 8
@alloc_37d2e53432a03a1f90b3e7253015eaf9 = private unnamed_addr constant <{ [4 x i8] }> <{ [4 x i8] c"None" }>, align 1
@vtable.2 = private constant <{ [24 x i8], ptr }> <{ [24 x i8] c"\00\00\00\00\00\00\00\00\08\00\00\00\00\00\00\00\08\00\00\00\00\00\00\00", ptr @"_ZN42_$LT$$RF$T$u20$as$u20$core..fmt..Debug$GT$3fmt17h1373699440099296E" }>, align 8, !dbg !49
@alloc_9535bf4c204f3eb9b19ec2c83e446e52 = private unnamed_addr constant <{ [4 x i8] }> <{ [4 x i8] c"Some" }>, align 1
@alloc_f4a2af391d184b51f8500ab920a89c81 = private unnamed_addr constant <{ [92 x i8] }> <{ [92 x i8] c"/home/agao/.cargo/registry/src/index.crates.io-6f17d22bba15001f/rand_core-0.6.4/src/block.rs" }>, align 1
@alloc_4df389f2d84016970ee0db1ca7e7767c = private unnamed_addr constant <{ ptr, [16 x i8] }> <{ ptr @alloc_f4a2af391d184b51f8500ab920a89c81, [16 x i8] c"\\\00\00\00\00\00\00\00\BF\00\00\00\15\00\00\00" }>, align 8
@alloc_d3716006a1aaab2a5d5bf0722e076d6a = private unnamed_addr constant <{ ptr, [16 x i8] }> <{ ptr @alloc_f4a2af391d184b51f8500ab920a89c81, [16 x i8] c"\\\00\00\00\00\00\00\00\D6\00\00\00\1F\00\00\00" }>, align 8
@alloc_37b36441072e2b27e1057673b8679d0a = private unnamed_addr constant <{ ptr, [16 x i8] }> <{ ptr @alloc_f4a2af391d184b51f8500ab920a89c81, [16 x i8] c"\\\00\00\00\00\00\00\00\D8\00\00\00\1F\00\00\00" }>, align 8
@alloc_b048268cabea28b352efc9547c1cc47a = private unnamed_addr constant <{ ptr, [16 x i8] }> <{ ptr @alloc_f4a2af391d184b51f8500ab920a89c81, [16 x i8] c"\\\00\00\00\00\00\00\00\C7\00\00\00 \00\00\00" }>, align 8
@alloc_502eb7a460e2d056fce005f333425b32 = private unnamed_addr constant <{ ptr, [16 x i8] }> <{ ptr @alloc_f4a2af391d184b51f8500ab920a89c81, [16 x i8] c"\\\00\00\00\00\00\00\00\C8\00\00\00\17\00\00\00" }>, align 8
@alloc_115f7f41812d818892c84fb4da13db31 = private unnamed_addr constant <{ ptr, [16 x i8] }> <{ ptr @alloc_f4a2af391d184b51f8500ab920a89c81, [16 x i8] c"\\\00\00\00\00\00\00\00\C8\00\00\002\00\00\00" }>, align 8
@alloc_5cb8b3d4323506b2a191a95e635f7eae = private unnamed_addr constant <{ [16 x i8] }> <{ [16 x i8] c"src/array_sum.rs" }>, align 1
@alloc_c56482219e597e7754bd598dc5c70fd5 = private unnamed_addr constant <{ ptr, [16 x i8] }> <{ ptr @alloc_5cb8b3d4323506b2a191a95e635f7eae, [16 x i8] c"\10\00\00\00\00\00\00\00\11\00\00\00\1B\00\00\00" }>, align 8
@alloc_f12ae6ff81a66eb55c0259121107ea55 = private unnamed_addr constant <{ ptr, [16 x i8] }> <{ ptr @alloc_5cb8b3d4323506b2a191a95e635f7eae, [16 x i8] c"\10\00\00\00\00\00\00\00\11\00\00\00'\00\00\00" }>, align 8
@alloc_5b0102dc258292fd5e83bca8293a8d53 = private unnamed_addr constant <{ [5 x i8] }> <{ [5 x i8] c"Sum: " }>, align 1
@alloc_49a1e817e911805af64bbc7efb390101 = private unnamed_addr constant <{ [1 x i8] }> <{ [1 x i8] c"\0A" }>, align 1
@alloc_fae7b78f3403b48b2870d7d78fcc4226 = private unnamed_addr constant <{ ptr, [8 x i8], ptr, [8 x i8] }> <{ ptr @alloc_5b0102dc258292fd5e83bca8293a8d53, [8 x i8] c"\05\00\00\00\00\00\00\00", ptr @alloc_49a1e817e911805af64bbc7efb390101, [8 x i8] c"\01\00\00\00\00\00\00\00" }>, align 8
@alloc_c219cfa59b3e2444a794e7497b6e4503 = private unnamed_addr constant <{ [32 x i8] }> <{ [32 x i8] c"Time taken to sum array of size " }>, align 1
@alloc_556e4180596b5b612bb6ed6c0cbb55e1 = private unnamed_addr constant <{ [2 x i8] }> <{ [2 x i8] c": " }>, align 1
@alloc_41bac06a7674978c8867bab93af34022 = private unnamed_addr constant <{ [9 x i8] }> <{ [9 x i8] c" seconds\0A" }>, align 1
@alloc_e9733d77bbfc181bdc07f6a581d03ae5 = private unnamed_addr constant <{ ptr, [8 x i8], ptr, [8 x i8], ptr, [8 x i8] }> <{ ptr @alloc_c219cfa59b3e2444a794e7497b6e4503, [8 x i8] c" \00\00\00\00\00\00\00", ptr @alloc_556e4180596b5b612bb6ed6c0cbb55e1, [8 x i8] c"\02\00\00\00\00\00\00\00", ptr @alloc_41bac06a7674978c8867bab93af34022, [8 x i8] c"\09\00\00\00\00\00\00\00" }>, align 8
@alloc_aad2517fd4101d459009dc52af803952 = private unnamed_addr constant <{ ptr, [16 x i8] }> <{ ptr @alloc_5cb8b3d4323506b2a191a95e635f7eae, [16 x i8] c"\10\00\00\00\00\00\00\00\1F\00\00\00\1A\00\00\00" }>, align 8
@alloc_2bd6595a69db0f93055ce8f32cf39e17 = private unnamed_addr constant <{ ptr, [16 x i8] }> <{ ptr @alloc_5cb8b3d4323506b2a191a95e635f7eae, [16 x i8] c"\10\00\00\00\00\00\00\00%\00\00\00\13\00\00\00" }>, align 8
@alloc_b3b7b62e2de4e0d2f54071994dec848f = private unnamed_addr constant <{ [7 x i8] }> <{ [7 x i8] c"Usage: " }>, align 1
@alloc_e04b098a0aab35e6981327da6da001a6 = private unnamed_addr constant <{ [14 x i8] }> <{ [14 x i8] c" <array_size>\0A" }>, align 1
@alloc_f5141501c590cf3a1a1c86d0852343ad = private unnamed_addr constant <{ ptr, [8 x i8], ptr, [8 x i8] }> <{ ptr @alloc_b3b7b62e2de4e0d2f54071994dec848f, [8 x i8] c"\07\00\00\00\00\00\00\00", ptr @alloc_e04b098a0aab35e6981327da6da001a6, [8 x i8] c"\0E\00\00\00\00\00\00\00" }>, align 8
@alloc_05caefeccd73f12fad9eef8a0339362a = private unnamed_addr constant <{ ptr, [16 x i8] }> <{ ptr @alloc_5cb8b3d4323506b2a191a95e635f7eae, [16 x i8] c"\10\00\00\00\00\00\00\00\0D\00\00\001\00\00\00" }>, align 8
@alloc_29ae15fce5ff24d4864549f41b192b00 = private unnamed_addr constant <{ [19 x i8] }> <{ [19 x i8] c"Invalid array size\0A" }>, align 1
@alloc_1b84144bb19ede9f36af48f53cfd8ec2 = private unnamed_addr constant <{ ptr, [8 x i8] }> <{ ptr @alloc_29ae15fce5ff24d4864549f41b192b00, [8 x i8] c"\13\00\00\00\00\00\00\00" }>, align 8
@__rustc_debug_gdb_scripts_section__ = linkonce_odr unnamed_addr constant [34 x i8] c"\01gdb_load_rust_pretty_printers.py\00", section ".debug_gdb_scripts", align 1

; <core::iter::adapters::map::Map<I,F> as core::iter::traits::iterator::Iterator>::fold
; Function Attrs: nonlazybind uwtable
define internal void @"_ZN102_$LT$core..iter..adapters..map..Map$LT$I$C$F$GT$$u20$as$u20$core..iter..traits..iterator..Iterator$GT$4fold17hae526662f0b0ae2bE"(ptr align 8 %self, ptr align 8 %g) unnamed_addr #0 !dbg !167 {
start:
  %f.dbg.spill = alloca [8 x i8], align 8
  %init.dbg.spill = alloca [0 x i8], align 1
  %_5 = alloca [32 x i8], align 8
    #dbg_declare(ptr %self, !336, !DIExpression(), !343)
    #dbg_declare(ptr %init.dbg.spill, !337, !DIExpression(), !344)
    #dbg_declare(ptr %g, !338, !DIExpression(), !345)
    #dbg_declare(ptr %g, !346, !DIExpression(), !360)
  %0 = getelementptr inbounds i8, ptr %self, i64 8, !dbg !362
  %_4.0 = load i64, ptr %0, align 8, !dbg !362
  %1 = getelementptr inbounds i8, ptr %0, i64 8, !dbg !362
  %_4.1 = load i64, ptr %1, align 8, !dbg !362
  %f = load ptr, ptr %self, align 8, !dbg !363
  store ptr %f, ptr %f.dbg.spill, align 8, !dbg !363
    #dbg_declare(ptr %f.dbg.spill, !356, !DIExpression(), !364)
  call void @llvm.memcpy.p0.p0.i64(ptr align 8 %_5, ptr align 8 %g, i64 24, i1 false), !dbg !365
  %2 = getelementptr inbounds i8, ptr %_5, i64 24, !dbg !365
  store ptr %f, ptr %2, align 8, !dbg !365
; call core::iter::traits::iterator::Iterator::fold
  call void @_ZN4core4iter6traits8iterator8Iterator4fold17h81e14ea153493b72E(i64 %_4.0, i64 %_4.1, ptr align 8 %_5), !dbg !362
  ret void, !dbg !366
}

; <core::iter::adapters::map::Map<I,F> as core::iter::traits::iterator::Iterator>::size_hint
; Function Attrs: inlinehint nonlazybind uwtable
define internal void @"_ZN102_$LT$core..iter..adapters..map..Map$LT$I$C$F$GT$$u20$as$u20$core..iter..traits..iterator..Iterator$GT$9size_hint17h1b6d2b3223681e93E"(ptr sret([24 x i8]) align 8 %_0, ptr align 8 %self) unnamed_addr #1 !dbg !367 {
start:
  %self.dbg.spill = alloca [8 x i8], align 8
  store ptr %self, ptr %self.dbg.spill, align 8
    #dbg_declare(ptr %self.dbg.spill, !376, !DIExpression(), !378)
  %_2 = getelementptr inbounds i8, ptr %self, i64 8, !dbg !379
; call core::iter::range::<impl core::iter::traits::iterator::Iterator for core::ops::range::Range<A>>::size_hint
  call void @"_ZN4core4iter5range101_$LT$impl$u20$core..iter..traits..iterator..Iterator$u20$for$u20$core..ops..range..Range$LT$A$GT$$GT$9size_hint17h6a58cfea725376e1E"(ptr sret([24 x i8]) align 8 %_0, ptr align 8 %_2), !dbg !379
  ret void, !dbg !380
}

; <alloc::vec::into_iter::IntoIter<T,A> as core::iter::traits::iterator::Iterator>::size_hint
; Function Attrs: inlinehint nonlazybind uwtable
define internal void @"_ZN103_$LT$alloc..vec..into_iter..IntoIter$LT$T$C$A$GT$$u20$as$u20$core..iter..traits..iterator..Iterator$GT$9size_hint17hef84a52ed248a45aE"(ptr sret([24 x i8]) align 8 %_0, ptr align 8 %self) unnamed_addr #1 !dbg !381 {
start:
  %pointee_size.dbg.spill = alloca [8 x i8], align 8
  %origin.dbg.spill = alloca [8 x i8], align 8
  %self.dbg.spill3 = alloca [8 x i8], align 8
  %subtracted.dbg.spill = alloca [8 x i8], align 8
  %self.dbg.spill2 = alloca [8 x i8], align 8
  %self.dbg.spill = alloca [8 x i8], align 8
  %_13 = alloca [16 x i8], align 8
  %exact = alloca [8 x i8], align 8
  store ptr %self, ptr %self.dbg.spill, align 8
    #dbg_declare(ptr %self.dbg.spill, !454, !DIExpression(), !457)
    #dbg_declare(ptr %exact, !455, !DIExpression(), !458)
  br label %bb2, !dbg !459

bb2:                                              ; preds = %start
  %_10 = getelementptr inbounds i8, ptr %self, i64 24, !dbg !460
  %self1 = load ptr, ptr %_10, align 8, !dbg !461
  store ptr %self1, ptr %self.dbg.spill2, align 8, !dbg !461
    #dbg_declare(ptr %self.dbg.spill2, !462, !DIExpression(), !470)
  %0 = getelementptr inbounds i8, ptr %self, i64 8, !dbg !472
  %subtracted = load ptr, ptr %0, align 8, !dbg !472
  store ptr %subtracted, ptr %subtracted.dbg.spill, align 8, !dbg !472
    #dbg_declare(ptr %subtracted.dbg.spill, !469, !DIExpression(), !473)
  store ptr %self1, ptr %self.dbg.spill3, align 8, !dbg !474
    #dbg_declare(ptr %self.dbg.spill3, !475, !DIExpression(), !486)
  store ptr %subtracted, ptr %origin.dbg.spill, align 8, !dbg !488
    #dbg_declare(ptr %origin.dbg.spill, !483, !DIExpression(), !489)
  br label %bb5, !dbg !490

bb5:                                              ; preds = %bb2
; call core::ptr::const_ptr::<impl *const T>::sub_ptr::precondition_check
  call void @"_ZN4core3ptr9const_ptr33_$LT$impl$u20$$BP$const$u20$T$GT$7sub_ptr18precondition_check17hdb5ac442bee26a31E"(ptr %self1, ptr %subtracted) #16, !dbg !493
  br label %bb7, !dbg !494

bb7:                                              ; preds = %bb5
  store i64 24, ptr %pointee_size.dbg.spill, align 8, !dbg !495
    #dbg_declare(ptr %pointee_size.dbg.spill, !484, !DIExpression(), !501)
  br label %bb8, !dbg !502

bb8:                                              ; preds = %bb7
  br label %bb9, !dbg !503

bb9:                                              ; preds = %bb8
  %1 = ptrtoint ptr %self1 to i64, !dbg !504
  %2 = ptrtoint ptr %subtracted to i64, !dbg !504
  %3 = sub nuw i64 %1, %2, !dbg !504
  %4 = udiv exact i64 %3, 24, !dbg !504
  store i64 %4, ptr %exact, align 8, !dbg !504
  br label %bb3, !dbg !505

bb10:                                             ; No predecessors!
; call core::panicking::panic
  call void @_ZN4core9panicking5panic17h95d8269cf8bd4f7aE(ptr align 1 @alloc_ec595fc0e82ef92fc59bd74f68296eae, i64 73, ptr align 8 @alloc_ab1ac9d746971d7a8a1e50e6492bd5e1) #17, !dbg !506
  unreachable, !dbg !506

bb3:                                              ; preds = %bb9
  %_12 = load i64, ptr %exact, align 8, !dbg !507
  %_14 = load i64, ptr %exact, align 8, !dbg !508
  %5 = getelementptr inbounds i8, ptr %_13, i64 8, !dbg !509
  store i64 %_14, ptr %5, align 8, !dbg !509
  store i64 1, ptr %_13, align 8, !dbg !509
  store i64 %_12, ptr %_0, align 8, !dbg !510
  %6 = load i64, ptr %_13, align 8, !dbg !510
  %7 = getelementptr inbounds i8, ptr %_13, i64 8, !dbg !510
  %8 = load i64, ptr %7, align 8, !dbg !510
  %9 = getelementptr inbounds i8, ptr %_0, i64 8, !dbg !510
  store i64 %6, ptr %9, align 8, !dbg !510
  %10 = getelementptr inbounds i8, ptr %9, i64 8, !dbg !510
  store i64 %8, ptr %10, align 8, !dbg !510
  ret void, !dbg !511

bb1:                                              ; No predecessors!
  unreachable
}

; <core::ops::range::Range<T> as rand::distributions::uniform::SampleRange<T>>::sample_single
; Function Attrs: inlinehint nonlazybind uwtable
define internal i64 @"_ZN103_$LT$core..ops..range..Range$LT$T$GT$$u20$as$u20$rand..distributions..uniform..SampleRange$LT$T$GT$$GT$13sample_single17hb3e5b5d0a88884d8E"(i64 %self.0, i64 %self.1, ptr align 8 %rng) unnamed_addr #1 !dbg !512 {
start:
  %rng.dbg.spill = alloca [8 x i8], align 8
  %self.dbg.spill = alloca [16 x i8], align 8
  store i64 %self.0, ptr %self.dbg.spill, align 8
  %0 = getelementptr inbounds i8, ptr %self.dbg.spill, i64 8
  store i64 %self.1, ptr %0, align 8
    #dbg_declare(ptr %self.dbg.spill, !520, !DIExpression(), !524)
  store ptr %rng, ptr %rng.dbg.spill, align 8
    #dbg_declare(ptr %rng.dbg.spill, !521, !DIExpression(), !525)
; call <rand::distributions::uniform::UniformInt<usize> as rand::distributions::uniform::UniformSampler>::sample_single
  %_0 = call i64 @"_ZN118_$LT$rand..distributions..uniform..UniformInt$LT$usize$GT$$u20$as$u20$rand..distributions..uniform..UniformSampler$GT$13sample_single17hd852801b499e529dE"(i64 %self.0, i64 %self.1, ptr align 8 %rng), !dbg !526
  ret i64 %_0, !dbg !527
}

; <core::ops::range::Range<T> as rand::distributions::uniform::SampleRange<T>>::sample_single
; Function Attrs: inlinehint nonlazybind uwtable
define internal i32 @"_ZN103_$LT$core..ops..range..Range$LT$T$GT$$u20$as$u20$rand..distributions..uniform..SampleRange$LT$T$GT$$GT$13sample_single17hb9a484cf90283be4E"(i32 %self.0, i32 %self.1, ptr align 8 %rng) unnamed_addr #1 !dbg !528 {
start:
  %rng.dbg.spill = alloca [8 x i8], align 8
  %self.dbg.spill = alloca [8 x i8], align 4
  store i32 %self.0, ptr %self.dbg.spill, align 4
  %0 = getelementptr inbounds i8, ptr %self.dbg.spill, i64 4
  store i32 %self.1, ptr %0, align 4
    #dbg_declare(ptr %self.dbg.spill, !538, !DIExpression(), !542)
  store ptr %rng, ptr %rng.dbg.spill, align 8
    #dbg_declare(ptr %rng.dbg.spill, !539, !DIExpression(), !543)
; call <rand::distributions::uniform::UniformInt<i32> as rand::distributions::uniform::UniformSampler>::sample_single
  %_0 = call i32 @"_ZN116_$LT$rand..distributions..uniform..UniformInt$LT$i32$GT$$u20$as$u20$rand..distributions..uniform..UniformSampler$GT$13sample_single17h5f2c9067414962c7E"(i32 %self.0, i32 %self.1, ptr align 8 %rng), !dbg !544
  ret i32 %_0, !dbg !545
}

; <core::ops::range::Range<T> as rand::distributions::uniform::SampleRange<T>>::is_empty
; Function Attrs: inlinehint nonlazybind uwtable
define internal zeroext i1 @"_ZN103_$LT$core..ops..range..Range$LT$T$GT$$u20$as$u20$rand..distributions..uniform..SampleRange$LT$T$GT$$GT$8is_empty17h99dfb11862fb21d3E"(ptr align 4 %self) unnamed_addr #1 !dbg !546 {
start:
  %other.dbg.spill.i = alloca [8 x i8], align 8
  %self.dbg.spill.i = alloca [8 x i8], align 8
  %self.dbg.spill = alloca [8 x i8], align 8
  store ptr %self, ptr %self.dbg.spill, align 8
    #dbg_declare(ptr %self.dbg.spill, !552, !DIExpression(), !554)
  %_4 = getelementptr inbounds i8, ptr %self, i64 4, !dbg !555
  store ptr %self, ptr %self.dbg.spill.i, align 8
    #dbg_declare(ptr %self.dbg.spill.i, !556, !DIExpression(), !566)
  store ptr %_4, ptr %other.dbg.spill.i, align 8
    #dbg_declare(ptr %other.dbg.spill.i, !565, !DIExpression(), !568)
  %_3.i = load i32, ptr %self, align 4, !dbg !569
  %_4.i = load i32, ptr %_4, align 4, !dbg !570
  %_0.i = icmp slt i32 %_3.i, %_4.i, !dbg !569
  %_0 = xor i1 %_0.i, true, !dbg !571
  ret i1 %_0, !dbg !572
}

; <core::ops::range::Range<T> as rand::distributions::uniform::SampleRange<T>>::is_empty
; Function Attrs: inlinehint nonlazybind uwtable
define internal zeroext i1 @"_ZN103_$LT$core..ops..range..Range$LT$T$GT$$u20$as$u20$rand..distributions..uniform..SampleRange$LT$T$GT$$GT$8is_empty17h9ad9b146c2a6f5feE"(ptr align 8 %self) unnamed_addr #1 !dbg !573 {
start:
  %other.dbg.spill.i = alloca [8 x i8], align 8
  %self.dbg.spill.i = alloca [8 x i8], align 8
  %self.dbg.spill = alloca [8 x i8], align 8
  store ptr %self, ptr %self.dbg.spill, align 8
    #dbg_declare(ptr %self.dbg.spill, !578, !DIExpression(), !579)
  %_4 = getelementptr inbounds i8, ptr %self, i64 8, !dbg !580
  store ptr %self, ptr %self.dbg.spill.i, align 8
    #dbg_declare(ptr %self.dbg.spill.i, !581, !DIExpression(), !588)
  store ptr %_4, ptr %other.dbg.spill.i, align 8
    #dbg_declare(ptr %other.dbg.spill.i, !587, !DIExpression(), !590)
  %_3.i = load i64, ptr %self, align 8, !dbg !591
  %_4.i = load i64, ptr %_4, align 8, !dbg !592
  %_0.i = icmp ult i64 %_3.i, %_4.i, !dbg !591
  %_0 = xor i1 %_0.i, true, !dbg !593
  ret i1 %_0, !dbg !594
}

; <alloc::vec::Vec<T> as alloc::vec::spec_from_iter_nested::SpecFromIterNested<T,I>>::from_iter
; Function Attrs: nonlazybind uwtable
define internal void @"_ZN111_$LT$alloc..vec..Vec$LT$T$GT$$u20$as$u20$alloc..vec..spec_from_iter_nested..SpecFromIterNested$LT$T$C$I$GT$$GT$9from_iter17h2d3a88836be79103E"(ptr sret([24 x i8]) align 8 %_0, ptr align 8 %iterator, ptr align 8 %0) unnamed_addr #0 personality ptr @rust_eh_personality !dbg !595 {
start:
  %self.dbg.spill11 = alloca [8 x i8], align 8
  %dst.dbg.spill = alloca [8 x i8], align 8
  %self.dbg.spill10 = alloca [8 x i8], align 8
  %self.dbg.spill9 = alloca [8 x i8], align 8
  %self.dbg.spill8 = alloca [8 x i8], align 8
  %self.dbg.spill7 = alloca [8 x i8], align 8
  %self.dbg.spill6 = alloca [8 x i8], align 8
  %initial_capacity.dbg.spill = alloca [8 x i8], align 8
  %v2.dbg.spill = alloca [8 x i8], align 8
  %1 = alloca [8 x i8], align 8
  %lower.dbg.spill = alloca [8 x i8], align 8
  %ptr.dbg.spill = alloca [8 x i8], align 8
  %align.dbg.spill = alloca [8 x i8], align 8
  %2 = alloca [16 x i8], align 8
  %new_len.dbg.spill = alloca [8 x i8], align 8
  %alloc.dbg.spill4 = alloca [0 x i8], align 1
  %alloc.dbg.spill3 = alloca [0 x i8], align 1
  %self.dbg.spill = alloca [8 x i8], align 8
  %v1.dbg.spill = alloca [8 x i8], align 8
  %rhs.dbg.spill = alloca [8 x i8], align 8
  %alloc.dbg.spill2 = alloca [0 x i8], align 1
  %alloc.dbg.spill = alloca [0 x i8], align 1
  %_20 = alloca [1 x i8], align 1
  %_19 = alloca [32 x i8], align 8
  %src = alloca [24 x i8], align 8
  %vector1 = alloca [24 x i8], align 8
  %_8 = alloca [24 x i8], align 8
  %element = alloca [24 x i8], align 8
  %_3 = alloca [24 x i8], align 8
  %vector = alloca [24 x i8], align 8
    #dbg_declare(ptr %iterator, !644, !DIExpression(), !657)
    #dbg_declare(ptr %vector, !645, !DIExpression(), !658)
    #dbg_declare(ptr %element, !647, !DIExpression(), !659)
    #dbg_declare(ptr %vector1, !653, !DIExpression(), !660)
    #dbg_declare(ptr %src, !661, !DIExpression(), !669)
    #dbg_declare(ptr %alloc.dbg.spill, !671, !DIExpression(), !678)
    #dbg_declare(ptr %alloc.dbg.spill2, !691, !DIExpression(), !700)
  store i64 1, ptr %rhs.dbg.spill, align 8, !dbg !702
    #dbg_declare(ptr %rhs.dbg.spill, !710, !DIExpression(), !702)
  store i64 4, ptr %v1.dbg.spill, align 8, !dbg !712
    #dbg_declare(ptr %v1.dbg.spill, !715, !DIExpression(), !712)
  store i64 4, ptr %self.dbg.spill, align 8, !dbg !718
    #dbg_declare(ptr %self.dbg.spill, !722, !DIExpression(), !718)
    #dbg_declare(ptr %alloc.dbg.spill3, !727, !DIExpression(), !734)
    #dbg_declare(ptr %alloc.dbg.spill4, !743, !DIExpression(), !750)
  store i64 1, ptr %new_len.dbg.spill, align 8, !dbg !752
    #dbg_declare(ptr %new_len.dbg.spill, !760, !DIExpression(), !752)
  store i8 1, ptr %_20, align 1, !dbg !762
; invoke <std::env::Args as core::iter::traits::iterator::Iterator>::next
  invoke void @"_ZN73_$LT$std..env..Args$u20$as$u20$core..iter..traits..iterator..Iterator$GT$4next17hb97f91f018a1a8bfE"(ptr sret([24 x i8]) align 8 %_3, ptr align 8 %iterator)
          to label %bb1 unwind label %cleanup, !dbg !763

bb11:                                             ; preds = %bb9, %bb7, %cleanup
  %3 = load i8, ptr %_20, align 1, !dbg !764
  %4 = trunc i8 %3 to i1, !dbg !764
  br i1 %4, label %bb10, label %bb8, !dbg !764

cleanup:                                          ; preds = %start
  %5 = landingpad { ptr, i32 }
          cleanup
  %6 = extractvalue { ptr, i32 } %5, 0
  %7 = extractvalue { ptr, i32 } %5, 1
  store ptr %6, ptr %2, align 8
  %8 = getelementptr inbounds i8, ptr %2, i64 8
  store i32 %7, ptr %8, align 8
  br label %bb11

bb1:                                              ; preds = %start
  %9 = load i64, ptr %_3, align 8, !dbg !763
  %10 = icmp eq i64 %9, -9223372036854775808, !dbg !763
  %_5 = select i1 %10, i64 0, i64 1, !dbg !763
  %11 = icmp eq i64 %_5, 0, !dbg !765
  br i1 %11, label %bb12, label %bb3, !dbg !765

bb12:                                             ; preds = %bb1
  store i64 8, ptr %align.dbg.spill, align 8, !dbg !766
    #dbg_declare(ptr %align.dbg.spill, !697, !DIExpression(), !769)
  store ptr getelementptr (i8, ptr null, i64 8), ptr %ptr.dbg.spill, align 8, !dbg !770
    #dbg_declare(ptr %ptr.dbg.spill, !698, !DIExpression(), !771)
  store i64 0, ptr %_0, align 8, !dbg !772
  %12 = getelementptr inbounds i8, ptr %_0, i64 8, !dbg !772
  store ptr getelementptr (i8, ptr null, i64 8), ptr %12, align 8, !dbg !772
  %13 = getelementptr inbounds i8, ptr %_0, i64 16, !dbg !772
  store i64 0, ptr %13, align 8, !dbg !772
; call core::ptr::drop_in_place<std::env::Args>
  call void @"_ZN4core3ptr35drop_in_place$LT$std..env..Args$GT$17hdc103e0386094e72E"(ptr align 8 %iterator), !dbg !764
  br label %bb6, !dbg !764

bb3:                                              ; preds = %bb1
  call void @llvm.memcpy.p0.p0.i64(ptr align 8 %element, ptr align 8 %_3, i64 24, i1 false), !dbg !773
; invoke <std::env::Args as core::iter::traits::iterator::Iterator>::size_hint
  invoke void @"_ZN73_$LT$std..env..Args$u20$as$u20$core..iter..traits..iterator..Iterator$GT$9size_hint17h238855071e9006b0E"(ptr sret([24 x i8]) align 8 %_8, ptr align 8 %iterator)
          to label %bb4 unwind label %cleanup5, !dbg !774

bb6:                                              ; preds = %bb5, %bb12
  ret void, !dbg !775

bb9:                                              ; preds = %cleanup5
; invoke core::ptr::drop_in_place<alloc::string::String>
  invoke void @"_ZN4core3ptr42drop_in_place$LT$alloc..string..String$GT$17hc9872b1fb13f053eE"(ptr align 8 %element) #18
          to label %bb11 unwind label %terminate, !dbg !776

cleanup5:                                         ; preds = %bb14, %bb4, %bb3
  %14 = landingpad { ptr, i32 }
          cleanup
  %15 = extractvalue { ptr, i32 } %14, 0
  %16 = extractvalue { ptr, i32 } %14, 1
  store ptr %15, ptr %2, align 8
  %17 = getelementptr inbounds i8, ptr %2, i64 8
  store i32 %16, ptr %17, align 8
  br label %bb9

bb4:                                              ; preds = %bb3
  %lower = load i64, ptr %_8, align 8, !dbg !777
  store i64 %lower, ptr %lower.dbg.spill, align 8, !dbg !777
    #dbg_declare(ptr %lower.dbg.spill, !649, !DIExpression(), !778)
    #dbg_declare(ptr %lower.dbg.spill, !709, !DIExpression(), !779)
  %18 = call i64 @llvm.uadd.sat.i64(i64 %lower, i64 1), !dbg !780
  store i64 %18, ptr %1, align 8, !dbg !780
  %v2 = load i64, ptr %1, align 8, !dbg !780
  store i64 %v2, ptr %v2.dbg.spill, align 8, !dbg !780
    #dbg_declare(ptr %v2.dbg.spill, !716, !DIExpression(), !781)
    #dbg_declare(ptr %v2.dbg.spill, !723, !DIExpression(), !782)
; invoke core::cmp::max_by
  %initial_capacity = invoke i64 @_ZN4core3cmp6max_by17h486909ddd5f25aa4E(i64 4, i64 %v2)
          to label %bb14 unwind label %cleanup5, !dbg !783

bb14:                                             ; preds = %bb4
  store i64 %initial_capacity, ptr %initial_capacity.dbg.spill, align 8, !dbg !783
    #dbg_declare(ptr %initial_capacity.dbg.spill, !651, !DIExpression(), !784)
    #dbg_declare(ptr %initial_capacity.dbg.spill, !741, !DIExpression(), !785)
    #dbg_declare(ptr %initial_capacity.dbg.spill, !733, !DIExpression(), !786)
    #dbg_declare(ptr %initial_capacity.dbg.spill, !749, !DIExpression(), !787)
; invoke alloc::raw_vec::RawVecInner<A>::with_capacity_in
  %19 = invoke { i64, ptr } @"_ZN5alloc7raw_vec20RawVecInner$LT$A$GT$16with_capacity_in17hcb7dc7792eae0263E"(i64 %initial_capacity, i64 8, i64 24, ptr align 8 %0)
          to label %bb15 unwind label %cleanup5, !dbg !788

bb15:                                             ; preds = %bb14
  %_26.0 = extractvalue { i64, ptr } %19, 0, !dbg !788
  %_26.1 = extractvalue { i64, ptr } %19, 1, !dbg !788
  store i64 %_26.0, ptr %vector1, align 8, !dbg !789
  %20 = getelementptr inbounds i8, ptr %vector1, i64 8, !dbg !789
  store ptr %_26.1, ptr %20, align 8, !dbg !789
  %21 = getelementptr inbounds i8, ptr %vector1, i64 16, !dbg !789
  store i64 0, ptr %21, align 8, !dbg !789
  store ptr %vector1, ptr %self.dbg.spill6, align 8, !dbg !790
    #dbg_declare(ptr %self.dbg.spill6, !791, !DIExpression(), !797)
  store ptr %vector1, ptr %self.dbg.spill7, align 8, !dbg !799
    #dbg_declare(ptr %self.dbg.spill7, !800, !DIExpression(), !807)
  store ptr %vector1, ptr %self.dbg.spill8, align 8, !dbg !809
    #dbg_declare(ptr %self.dbg.spill8, !810, !DIExpression(), !818)
    #dbg_declare(ptr %self.dbg.spill8, !820, !DIExpression(), !830)
  %22 = getelementptr inbounds i8, ptr %vector1, i64 8, !dbg !832
  %self = load ptr, ptr %22, align 8, !dbg !832
  store ptr %self, ptr %self.dbg.spill9, align 8, !dbg !832
    #dbg_declare(ptr %self.dbg.spill9, !833, !DIExpression(), !846)
    #dbg_declare(ptr %self.dbg.spill9, !848, !DIExpression(), !854)
    #dbg_declare(ptr %self.dbg.spill9, !856, !DIExpression(), !863)
  store ptr %self, ptr %self.dbg.spill10, align 8, !dbg !865
    #dbg_declare(ptr %self.dbg.spill10, !866, !DIExpression(), !872)
    #dbg_declare(ptr %self.dbg.spill10, !874, !DIExpression(), !880)
  store ptr %self, ptr %dst.dbg.spill, align 8, !dbg !882
    #dbg_declare(ptr %dst.dbg.spill, !668, !DIExpression(), !883)
  call void @llvm.memcpy.p0.p0.i64(ptr align 8 %src, ptr align 8 %element, i64 24, i1 false), !dbg !884
  call void @llvm.memcpy.p0.p0.i64(ptr align 8 %self, ptr align 8 %src, i64 24, i1 false), !dbg !885
  store ptr %vector1, ptr %self.dbg.spill11, align 8, !dbg !886
    #dbg_declare(ptr %self.dbg.spill11, !759, !DIExpression(), !887)
    #dbg_declare(ptr %self.dbg.spill11, !888, !DIExpression(), !895)
  %23 = getelementptr inbounds i8, ptr %vector1, i64 16, !dbg !897
  store i64 1, ptr %23, align 8, !dbg !897
  call void @llvm.memcpy.p0.p0.i64(ptr align 8 %vector, ptr align 8 %vector1, i64 24, i1 false), !dbg !898
  store i8 0, ptr %_20, align 1, !dbg !899
  call void @llvm.memcpy.p0.p0.i64(ptr align 8 %_19, ptr align 8 %iterator, i64 32, i1 false), !dbg !899
; invoke <alloc::vec::Vec<T,A> as alloc::vec::spec_extend::SpecExtend<T,I>>::spec_extend
  invoke void @"_ZN97_$LT$alloc..vec..Vec$LT$T$C$A$GT$$u20$as$u20$alloc..vec..spec_extend..SpecExtend$LT$T$C$I$GT$$GT$11spec_extend17hbc00e3808f556d3aE"(ptr align 8 %vector, ptr align 8 %_19, ptr align 8 %0)
          to label %bb5 unwind label %cleanup12, !dbg !900

bb7:                                              ; preds = %cleanup12
; invoke core::ptr::drop_in_place<alloc::vec::Vec<alloc::string::String>>
  invoke void @"_ZN4core3ptr65drop_in_place$LT$alloc..vec..Vec$LT$alloc..string..String$GT$$GT$17h3fb532810bbc0f62E"(ptr align 8 %vector) #18
          to label %bb11 unwind label %terminate, !dbg !764

cleanup12:                                        ; preds = %bb15
  %24 = landingpad { ptr, i32 }
          cleanup
  %25 = extractvalue { ptr, i32 } %24, 0
  %26 = extractvalue { ptr, i32 } %24, 1
  store ptr %25, ptr %2, align 8
  %27 = getelementptr inbounds i8, ptr %2, i64 8
  store i32 %26, ptr %27, align 8
  br label %bb7

bb5:                                              ; preds = %bb15
  call void @llvm.memcpy.p0.p0.i64(ptr align 8 %_0, ptr align 8 %vector, i64 24, i1 false), !dbg !901
  br label %bb6, !dbg !764

terminate:                                        ; preds = %bb10, %bb9, %bb7
  %28 = landingpad { ptr, i32 }
          filter [0 x ptr] zeroinitializer
  %29 = extractvalue { ptr, i32 } %28, 0
  %30 = extractvalue { ptr, i32 } %28, 1
; call core::panicking::panic_in_cleanup
  call void @_ZN4core9panicking16panic_in_cleanup17h219356accc837b92E() #19, !dbg !902
  unreachable, !dbg !902

bb2:                                              ; No predecessors!
  unreachable, !dbg !763

bb8:                                              ; preds = %bb10, %bb11
  %31 = load ptr, ptr %2, align 8, !dbg !902
  %32 = getelementptr inbounds i8, ptr %2, i64 8, !dbg !902
  %33 = load i32, ptr %32, align 8, !dbg !902
  %34 = insertvalue { ptr, i32 } poison, ptr %31, 0, !dbg !902
  %35 = insertvalue { ptr, i32 } %34, i32 %33, 1, !dbg !902
  resume { ptr, i32 } %35, !dbg !902

bb10:                                             ; preds = %bb11
; invoke core::ptr::drop_in_place<std::env::Args>
  invoke void @"_ZN4core3ptr35drop_in_place$LT$std..env..Args$GT$17hdc103e0386094e72E"(ptr align 8 %iterator) #18
          to label %bb8 unwind label %terminate, !dbg !764
}

; <alloc::vec::Vec<T> as alloc::vec::spec_from_iter_nested::SpecFromIterNested<T,I>>::from_iter
; Function Attrs: nonlazybind uwtable
define internal void @"_ZN111_$LT$alloc..vec..Vec$LT$T$GT$$u20$as$u20$alloc..vec..spec_from_iter_nested..SpecFromIterNested$LT$T$C$I$GT$$GT$9from_iter17he5b1c10985f0ca9bE"(ptr sret([24 x i8]) align 8 %_0, ptr align 8 %iterator, ptr align 8 %0) unnamed_addr #0 personality ptr @rust_eh_personality !dbg !903 {
start:
  %upper.dbg.spill = alloca [8 x i8], align 8
  %1 = alloca [16 x i8], align 8
  %alloc.dbg.spill1 = alloca [0 x i8], align 1
  %alloc.dbg.spill = alloca [0 x i8], align 1
  %pieces.dbg.spill = alloca [8 x i8], align 8
  %_12 = alloca [1 x i8], align 1
  %_11 = alloca [24 x i8], align 8
  %_8 = alloca [48 x i8], align 8
  %_3 = alloca [24 x i8], align 8
  %vector = alloca [24 x i8], align 8
    #dbg_declare(ptr %iterator, !918, !DIExpression(), !925)
    #dbg_declare(ptr %vector, !919, !DIExpression(), !926)
  store ptr @alloc_11d257f5ed6cc7fc38feaa801053bac6, ptr %pieces.dbg.spill, align 8, !dbg !927
    #dbg_declare(ptr %pieces.dbg.spill, !1059, !DIExpression(), !927)
    #dbg_declare(ptr %alloc.dbg.spill, !1061, !DIExpression(), !1068)
    #dbg_declare(ptr %alloc.dbg.spill1, !1077, !DIExpression(), !1084)
  store i8 1, ptr %_12, align 1, !dbg !1086
; invoke <core::iter::adapters::map::Map<I,F> as core::iter::traits::iterator::Iterator>::size_hint
  invoke void @"_ZN102_$LT$core..iter..adapters..map..Map$LT$I$C$F$GT$$u20$as$u20$core..iter..traits..iterator..Iterator$GT$9size_hint17h1b6d2b3223681e93E"(ptr sret([24 x i8]) align 8 %_3, ptr align 8 %iterator)
          to label %bb1 unwind label %cleanup, !dbg !1087

bb8:                                              ; preds = %bb5, %cleanup
  %2 = load i8, ptr %_12, align 1, !dbg !1088
  %3 = trunc i8 %2 to i1, !dbg !1088
  br i1 %3, label %bb7, label %bb6, !dbg !1088

cleanup:                                          ; preds = %bb2, %bb3, %start
  %4 = landingpad { ptr, i32 }
          cleanup
  %5 = extractvalue { ptr, i32 } %4, 0
  %6 = extractvalue { ptr, i32 } %4, 1
  store ptr %5, ptr %1, align 8
  %7 = getelementptr inbounds i8, ptr %1, i64 8
  store i32 %6, ptr %7, align 8
  br label %bb8

bb1:                                              ; preds = %start
  %8 = getelementptr inbounds i8, ptr %_3, i64 8, !dbg !1087
  %_5 = load i64, ptr %8, align 8, !dbg !1087
  %9 = icmp eq i64 %_5, 1, !dbg !1089
  br i1 %9, label %bb3, label %bb2, !dbg !1089

bb3:                                              ; preds = %bb1
  %10 = getelementptr inbounds i8, ptr %_3, i64 8, !dbg !1090
  %11 = getelementptr inbounds i8, ptr %10, i64 8, !dbg !1090
  %upper = load i64, ptr %11, align 8, !dbg !1090
  store i64 %upper, ptr %upper.dbg.spill, align 8, !dbg !1090
    #dbg_declare(ptr %upper.dbg.spill, !921, !DIExpression(), !1091)
    #dbg_declare(ptr %upper.dbg.spill, !1075, !DIExpression(), !1092)
    #dbg_declare(ptr %upper.dbg.spill, !1067, !DIExpression(), !1093)
    #dbg_declare(ptr %upper.dbg.spill, !1083, !DIExpression(), !1094)
; invoke alloc::raw_vec::RawVecInner<A>::with_capacity_in
  %12 = invoke { i64, ptr } @"_ZN5alloc7raw_vec20RawVecInner$LT$A$GT$16with_capacity_in17hcb7dc7792eae0263E"(i64 %upper, i64 4, i64 4, ptr align 8 %0)
          to label %bb9 unwind label %cleanup, !dbg !1095

bb2:                                              ; preds = %bb1
  store ptr @alloc_11d257f5ed6cc7fc38feaa801053bac6, ptr %_8, align 8, !dbg !1096
  %13 = getelementptr inbounds i8, ptr %_8, i64 8, !dbg !1096
  store i64 1, ptr %13, align 8, !dbg !1096
  %14 = load ptr, ptr @0, align 8, !dbg !1096
  %15 = load i64, ptr getelementptr inbounds (i8, ptr @0, i64 8), align 8, !dbg !1096
  %16 = getelementptr inbounds i8, ptr %_8, i64 32, !dbg !1096
  store ptr %14, ptr %16, align 8, !dbg !1096
  %17 = getelementptr inbounds i8, ptr %16, i64 8, !dbg !1096
  store i64 %15, ptr %17, align 8, !dbg !1096
  %18 = getelementptr inbounds i8, ptr %_8, i64 16, !dbg !1096
  store ptr inttoptr (i64 8 to ptr), ptr %18, align 8, !dbg !1096
  %19 = getelementptr inbounds i8, ptr %18, i64 8, !dbg !1096
  store i64 0, ptr %19, align 8, !dbg !1096
; invoke core::panicking::panic_fmt
  invoke void @_ZN4core9panicking9panic_fmt17h74866b78e934b1c0E(ptr align 8 %_8, ptr align 8 %0) #17
          to label %unreachable unwind label %cleanup, !dbg !1060

bb9:                                              ; preds = %bb3
  %_16.0 = extractvalue { i64, ptr } %12, 0, !dbg !1095
  %_16.1 = extractvalue { i64, ptr } %12, 1, !dbg !1095
  store i64 %_16.0, ptr %vector, align 8, !dbg !1097
  %20 = getelementptr inbounds i8, ptr %vector, i64 8, !dbg !1097
  store ptr %_16.1, ptr %20, align 8, !dbg !1097
  %21 = getelementptr inbounds i8, ptr %vector, i64 16, !dbg !1097
  store i64 0, ptr %21, align 8, !dbg !1097
  store i8 0, ptr %_12, align 1, !dbg !1098
  call void @llvm.memcpy.p0.p0.i64(ptr align 8 %_11, ptr align 8 %iterator, i64 24, i1 false), !dbg !1098
; invoke <alloc::vec::Vec<T,A> as alloc::vec::spec_extend::SpecExtend<T,I>>::spec_extend
  invoke void @"_ZN97_$LT$alloc..vec..Vec$LT$T$C$A$GT$$u20$as$u20$alloc..vec..spec_extend..SpecExtend$LT$T$C$I$GT$$GT$11spec_extend17ha7f675f0ff245cdbE"(ptr align 8 %vector, ptr align 8 %_11, ptr align 8 %0)
          to label %bb4 unwind label %cleanup2, !dbg !1099

bb5:                                              ; preds = %cleanup2
; invoke core::ptr::drop_in_place<alloc::vec::Vec<i32>>
  invoke void @"_ZN4core3ptr47drop_in_place$LT$alloc..vec..Vec$LT$i32$GT$$GT$17hc4a68b7956da7e79E"(ptr align 8 %vector) #18
          to label %bb8 unwind label %terminate, !dbg !1088

cleanup2:                                         ; preds = %bb9
  %22 = landingpad { ptr, i32 }
          cleanup
  %23 = extractvalue { ptr, i32 } %22, 0
  %24 = extractvalue { ptr, i32 } %22, 1
  store ptr %23, ptr %1, align 8
  %25 = getelementptr inbounds i8, ptr %1, i64 8
  store i32 %24, ptr %25, align 8
  br label %bb5

bb4:                                              ; preds = %bb9
  call void @llvm.memcpy.p0.p0.i64(ptr align 8 %_0, ptr align 8 %vector, i64 24, i1 false), !dbg !1100
  ret void, !dbg !1101

terminate:                                        ; preds = %bb5
  %26 = landingpad { ptr, i32 }
          filter [0 x ptr] zeroinitializer
  %27 = extractvalue { ptr, i32 } %26, 0
  %28 = extractvalue { ptr, i32 } %26, 1
; call core::panicking::panic_in_cleanup
  call void @_ZN4core9panicking16panic_in_cleanup17h219356accc837b92E() #19, !dbg !1102
  unreachable, !dbg !1102

unreachable:                                      ; preds = %bb2
  unreachable

bb10:                                             ; No predecessors!
  unreachable, !dbg !1102

bb6:                                              ; preds = %bb7, %bb8
  %29 = load ptr, ptr %1, align 8, !dbg !1102
  %30 = getelementptr inbounds i8, ptr %1, i64 8, !dbg !1102
  %31 = load i32, ptr %30, align 8, !dbg !1102
  %32 = insertvalue { ptr, i32 } poison, ptr %29, 0, !dbg !1102
  %33 = insertvalue { ptr, i32 } %32, i32 %31, 1, !dbg !1102
  resume { ptr, i32 } %33, !dbg !1102

bb7:                                              ; preds = %bb8
  br label %bb6, !dbg !1088
}

; <core::ops::range::RangeInclusive<usize> as core::slice::index::SliceIndex<[T]>>::index
; Function Attrs: inlinehint nonlazybind uwtable
define internal { ptr, i64 } @"_ZN115_$LT$core..ops..range..RangeInclusive$LT$usize$GT$$u20$as$u20$core..slice..index..SliceIndex$LT$$u5b$T$u5d$$GT$$GT$5index17h7729c44a2d93f0cdE"(ptr align 8 %self, ptr align 4 %slice.0, i64 %slice.1, ptr align 8 %0) unnamed_addr #1 !dbg !1103 {
start:
  %ptr.dbg.spill2.i = alloca [8 x i8], align 8
  %ptr.dbg.spill.i = alloca [8 x i8], align 8
  %new_len.dbg.spill.i = alloca [8 x i8], align 8
  %rhs.dbg.spill.i = alloca [8 x i8], align 8
  %self.dbg.spill1.i = alloca [8 x i8], align 8
  %slice.dbg.spill.i = alloca [16 x i8], align 8
  %self.dbg.spill.i = alloca [16 x i8], align 8
  %_5.i = alloca [16 x i8], align 8
  %exclusive_end.dbg.spill = alloca [8 x i8], align 8
  %self.dbg.spill7 = alloca [1 x i8], align 1
  %self.dbg.spill5 = alloca [8 x i8], align 8
  %self.dbg.spill3 = alloca [8 x i8], align 8
  %self.dbg.spill = alloca [8 x i8], align 8
  %slice.dbg.spill = alloca [16 x i8], align 8
  %start1 = alloca [8 x i8], align 8
    #dbg_declare(ptr %self, !1121, !DIExpression(), !1123)
  store ptr %slice.0, ptr %slice.dbg.spill, align 8
  %1 = getelementptr inbounds i8, ptr %slice.dbg.spill, i64 8
  store i64 %slice.1, ptr %1, align 8
    #dbg_declare(ptr %slice.dbg.spill, !1122, !DIExpression(), !1124)
    #dbg_declare(ptr %start1, !1125, !DIExpression(), !1136)
  store ptr %self, ptr %self.dbg.spill, align 8, !dbg !1138
    #dbg_declare(ptr %self.dbg.spill, !1139, !DIExpression(), !1146)
  %2 = getelementptr inbounds i8, ptr %self, i64 8, !dbg !1148
  %self2 = load i64, ptr %2, align 8, !dbg !1148
  store i64 %self2, ptr %self.dbg.spill3, align 8, !dbg !1148
    #dbg_declare(ptr %self.dbg.spill3, !1134, !DIExpression(DW_OP_LLVM_fragment, 64, 64), !1149)
  %_3 = icmp eq i64 %self2, -1, !dbg !1148
  br i1 %_3, label %bb1, label %bb2, !dbg !1148

bb2:                                              ; preds = %start
  %self4 = load i64, ptr %self, align 8, !dbg !1150
  store i64 %self4, ptr %self.dbg.spill5, align 8, !dbg !1150
    #dbg_declare(ptr %self.dbg.spill5, !1134, !DIExpression(DW_OP_LLVM_fragment, 0, 64), !1149)
  %3 = getelementptr inbounds i8, ptr %self, i64 16, !dbg !1150
  %4 = load i8, ptr %3, align 8, !dbg !1150
  %self6 = trunc i8 %4 to i1, !dbg !1150
  %5 = zext i1 %self6 to i8, !dbg !1150
  store i8 %5, ptr %self.dbg.spill7, align 1, !dbg !1150
    #dbg_declare(ptr %self.dbg.spill7, !1134, !DIExpression(DW_OP_LLVM_fragment, 128, 8), !1149)
  %exclusive_end = add i64 %self2, 1, !dbg !1151
  store i64 %exclusive_end, ptr %exclusive_end.dbg.spill, align 8, !dbg !1151
    #dbg_declare(ptr %exclusive_end.dbg.spill, !1135, !DIExpression(), !1152)
  br i1 %self6, label %bb4, label %bb5, !dbg !1153

bb1:                                              ; preds = %start
; call core::slice::index::slice_end_index_overflow_fail
  call void @_ZN4core5slice5index29slice_end_index_overflow_fail17hf59fddce1700043bE(ptr align 8 %0) #17, !dbg !1154
  unreachable, !dbg !1154

bb5:                                              ; preds = %bb2
  store i64 %self4, ptr %start1, align 8, !dbg !1155
  br label %bb6, !dbg !1156

bb4:                                              ; preds = %bb2
  store i64 %exclusive_end, ptr %start1, align 8, !dbg !1157
  br label %bb6, !dbg !1156

bb6:                                              ; preds = %bb4, %bb5
  %_10 = load i64, ptr %start1, align 8, !dbg !1158
  store i64 %_10, ptr %self.dbg.spill.i, align 8
  %6 = getelementptr inbounds i8, ptr %self.dbg.spill.i, i64 8
  store i64 %exclusive_end, ptr %6, align 8
    #dbg_declare(ptr %self.dbg.spill.i, !1159, !DIExpression(), !1168)
  store ptr %slice.0, ptr %slice.dbg.spill.i, align 8
  %7 = getelementptr inbounds i8, ptr %slice.dbg.spill.i, i64 8
  store i64 %slice.1, ptr %7, align 8
    #dbg_declare(ptr %slice.dbg.spill.i, !1165, !DIExpression(), !1170)
    #dbg_declare(ptr %slice.dbg.spill.i, !1171, !DIExpression(), !1185)
    #dbg_declare(ptr %slice.dbg.spill.i, !1187, !DIExpression(), !1195)
  store i64 %exclusive_end, ptr %self.dbg.spill1.i, align 8, !dbg !1197
    #dbg_declare(ptr %self.dbg.spill1.i, !1198, !DIExpression(), !1204)
  store i64 %_10, ptr %rhs.dbg.spill.i, align 8, !dbg !1206
    #dbg_declare(ptr %rhs.dbg.spill.i, !1203, !DIExpression(), !1207)
    #dbg_declare(ptr %rhs.dbg.spill.i, !1180, !DIExpression(), !1208)
    #dbg_declare(ptr %rhs.dbg.spill.i, !1192, !DIExpression(), !1209)
  %_13.i = icmp ult i64 %exclusive_end, %_10, !dbg !1210
  br i1 %_13.i, label %bb3.i, label %bb4.i, !dbg !1210

bb4.i:                                            ; preds = %bb6
  %_14.i = sub nuw i64 %exclusive_end, %_10, !dbg !1211
  %8 = getelementptr inbounds i8, ptr %_5.i, i64 8, !dbg !1212
  store i64 %_14.i, ptr %8, align 8, !dbg !1212
  store i64 1, ptr %_5.i, align 8, !dbg !1212
  %9 = getelementptr inbounds i8, ptr %_5.i, i64 8, !dbg !1213
  %new_len.i = load i64, ptr %9, align 8, !dbg !1213
  store i64 %new_len.i, ptr %new_len.dbg.spill.i, align 8, !dbg !1213
    #dbg_declare(ptr %new_len.dbg.spill.i, !1166, !DIExpression(), !1214)
    #dbg_declare(ptr %new_len.dbg.spill.i, !1181, !DIExpression(), !1215)
  %_8.i = icmp ugt i64 %exclusive_end, %slice.1, !dbg !1216
  br i1 %_8.i, label %bb1.i, label %"_ZN106_$LT$core..ops..range..Range$LT$usize$GT$$u20$as$u20$core..slice..index..SliceIndex$LT$$u5b$T$u5d$$GT$$GT$5index17h0901fce376c5f826E.exit", !dbg !1216

bb3.i:                                            ; preds = %bb6
; call core::slice::index::slice_index_order_fail
  call void @_ZN4core5slice5index22slice_index_order_fail17h15bc9963aa4f7aeaE(i64 %_10, i64 %exclusive_end, ptr align 8 %0) #17, !dbg !1217
  unreachable, !dbg !1217

bb1.i:                                            ; preds = %bb4.i
; call core::slice::index::slice_end_index_len_fail
  call void @_ZN4core5slice5index24slice_end_index_len_fail17hda5ae4be0c5181ecE(i64 %exclusive_end, i64 %slice.1, ptr align 8 %0) #17, !dbg !1218
  unreachable, !dbg !1218

"_ZN106_$LT$core..ops..range..Range$LT$usize$GT$$u20$as$u20$core..slice..index..SliceIndex$LT$$u5b$T$u5d$$GT$$GT$5index17h0901fce376c5f826E.exit": ; preds = %bb4.i
  store ptr %slice.0, ptr %ptr.dbg.spill.i, align 8, !dbg !1219
    #dbg_declare(ptr %ptr.dbg.spill.i, !1193, !DIExpression(), !1220)
  %ptr.i = getelementptr inbounds i32, ptr %slice.0, i64 %_10, !dbg !1221
  store ptr %ptr.i, ptr %ptr.dbg.spill2.i, align 8, !dbg !1221
    #dbg_declare(ptr %ptr.dbg.spill2.i, !1182, !DIExpression(), !1222)
  %10 = insertvalue { ptr, i64 } poison, ptr %ptr.i, 0, !dbg !1223
  %11 = insertvalue { ptr, i64 } %10, i64 %new_len.i, 1, !dbg !1223
  %_0.0 = extractvalue { ptr, i64 } %11, 0, !dbg !1150
  %_0.1 = extractvalue { ptr, i64 } %11, 1, !dbg !1150
  %12 = insertvalue { ptr, i64 } poison, ptr %_0.0, 0, !dbg !1224
  %13 = insertvalue { ptr, i64 } %12, i64 %_0.1, 1, !dbg !1224
  ret { ptr, i64 } %13, !dbg !1224
}

; <rand::distributions::uniform::UniformInt<i32> as rand::distributions::uniform::UniformSampler>::sample_single
; Function Attrs: inlinehint nonlazybind uwtable
define internal i32 @"_ZN116_$LT$rand..distributions..uniform..UniformInt$LT$i32$GT$$u20$as$u20$rand..distributions..uniform..UniformSampler$GT$13sample_single17h5f2c9067414962c7E"(i32 %0, i32 %1, ptr align 8 %rng) unnamed_addr #1 personality ptr @rust_eh_personality !dbg !1225 {
start:
  %self.dbg.spill.i1 = alloca [8 x i8], align 8
  %self.dbg.spill.i = alloca [8 x i8], align 8
  %high.dbg.spill = alloca [4 x i8], align 4
  %low.dbg.spill = alloca [4 x i8], align 4
  %2 = alloca [16 x i8], align 8
  %rng.dbg.spill = alloca [8 x i8], align 8
  %high_b = alloca [4 x i8], align 4
  %low_b = alloca [4 x i8], align 4
  store i32 %0, ptr %low_b, align 4
  store i32 %1, ptr %high_b, align 4
    #dbg_declare(ptr %low_b, !1230, !DIExpression(), !1240)
    #dbg_declare(ptr %high_b, !1231, !DIExpression(), !1241)
  store ptr %rng, ptr %rng.dbg.spill, align 8
    #dbg_declare(ptr %rng.dbg.spill, !1232, !DIExpression(), !1242)
  store ptr %low_b, ptr %self.dbg.spill.i1, align 8
    #dbg_declare(ptr %self.dbg.spill.i1, !1243, !DIExpression(), !1251)
  br label %bb1, !dbg !1253

bb8:                                              ; preds = %cleanup
  br label %bb9, !dbg !1254

cleanup:                                          ; preds = %bb3, %bb4
  %3 = landingpad { ptr, i32 }
          cleanup
  %4 = extractvalue { ptr, i32 } %3, 0
  %5 = extractvalue { ptr, i32 } %3, 1
  store ptr %4, ptr %2, align 8
  %6 = getelementptr inbounds i8, ptr %2, i64 8
  store i32 %5, ptr %6, align 8
  br label %bb8

bb1:                                              ; preds = %start
  %low = load i32, ptr %low_b, align 4, !dbg !1255
  store i32 %low, ptr %low.dbg.spill, align 4, !dbg !1255
    #dbg_declare(ptr %low.dbg.spill, !1233, !DIExpression(), !1256)
  store ptr %high_b, ptr %self.dbg.spill.i, align 8
    #dbg_declare(ptr %self.dbg.spill.i, !1243, !DIExpression(), !1257)
  br label %bb2, !dbg !1259

bb2:                                              ; preds = %bb1
  %high = load i32, ptr %high_b, align 4, !dbg !1260
  store i32 %high, ptr %high.dbg.spill, align 4, !dbg !1260
    #dbg_declare(ptr %high.dbg.spill, !1235, !DIExpression(), !1261)
  %_10 = icmp slt i32 %low, %high, !dbg !1262
  br i1 %_10, label %bb3, label %bb4, !dbg !1262

bb4:                                              ; preds = %bb2
; invoke core::panicking::panic
  invoke void @_ZN4core9panicking5panic17h95d8269cf8bd4f7aE(ptr align 1 @alloc_423aa3b6c6652843f74515eef8a4d977, i64 42, ptr align 8 @alloc_63bc32bb730b9e443af34950742b3642) #17
          to label %unreachable unwind label %cleanup, !dbg !1263

bb3:                                              ; preds = %bb2
  %_12 = sub i32 %high, 1, !dbg !1264
; invoke <rand::distributions::uniform::UniformInt<i32> as rand::distributions::uniform::UniformSampler>::sample_single_inclusive
  %_0 = invoke i32 @"_ZN116_$LT$rand..distributions..uniform..UniformInt$LT$i32$GT$$u20$as$u20$rand..distributions..uniform..UniformSampler$GT$23sample_single_inclusive17h138232578dce8ca1E"(i32 %low, i32 %_12, ptr align 8 %rng)
          to label %bb5 unwind label %cleanup, !dbg !1265

unreachable:                                      ; preds = %bb4
  unreachable

bb5:                                              ; preds = %bb3
  br label %bb6, !dbg !1254

bb6:                                              ; preds = %bb5
  ret i32 %_0, !dbg !1266

bb9:                                              ; preds = %bb8
  %7 = load ptr, ptr %2, align 8, !dbg !1267
  %8 = getelementptr inbounds i8, ptr %2, i64 8, !dbg !1267
  %9 = load i32, ptr %8, align 8, !dbg !1267
  %10 = insertvalue { ptr, i32 } poison, ptr %7, 0, !dbg !1267
  %11 = insertvalue { ptr, i32 } %10, i32 %9, 1, !dbg !1267
  resume { ptr, i32 } %11, !dbg !1267
}

; <rand::distributions::uniform::UniformInt<i32> as rand::distributions::uniform::UniformSampler>::sample_single_inclusive
; Function Attrs: inlinehint nonlazybind uwtable
define internal i32 @"_ZN116_$LT$rand..distributions..uniform..UniformInt$LT$i32$GT$$u20$as$u20$rand..distributions..uniform..UniformSampler$GT$23sample_single_inclusive17h138232578dce8ca1E"(i32 %0, i32 %1, ptr align 8 %rng) unnamed_addr #1 personality ptr @rust_eh_personality !dbg !1268 {
start:
  %self.dbg.spill.i14 = alloca [8 x i8], align 8
  %self.dbg.spill.i13 = alloca [8 x i8], align 8
  %tmp.dbg.spill.i = alloca [8 x i8], align 8
  %x.dbg.spill.i = alloca [4 x i8], align 4
  %self.dbg.spill.i12 = alloca [4 x i8], align 4
  %2 = alloca [4 x i8], align 4
  %self.dbg.spill.i10 = alloca [4 x i8], align 4
  %rhs.dbg.spill.i7 = alloca [4 x i8], align 4
  %self.dbg.spill.i8 = alloca [4 x i8], align 4
  %rhs.dbg.spill.i4 = alloca [4 x i8], align 4
  %self.dbg.spill.i5 = alloca [4 x i8], align 4
  %rhs.dbg.spill.i1 = alloca [4 x i8], align 4
  %self.dbg.spill.i2 = alloca [4 x i8], align 4
  %rhs.dbg.spill.i = alloca [4 x i8], align 4
  %self.dbg.spill.i = alloca [4 x i8], align 4
  %lo.dbg.spill = alloca [4 x i8], align 4
  %hi.dbg.spill = alloca [4 x i8], align 4
  %v.dbg.spill = alloca [4 x i8], align 4
  %ints_to_reject.dbg.spill = alloca [4 x i8], align 4
  %unsigned_max.dbg.spill = alloca [4 x i8], align 4
  %range.dbg.spill = alloca [4 x i8], align 4
  %high.dbg.spill = alloca [4 x i8], align 4
  %low.dbg.spill = alloca [4 x i8], align 4
  %3 = alloca [16 x i8], align 8
  %rng.dbg.spill = alloca [8 x i8], align 8
  %zone = alloca [4 x i8], align 4
  %_0 = alloca [4 x i8], align 4
  %high_b = alloca [4 x i8], align 4
  %low_b = alloca [4 x i8], align 4
  store i32 %0, ptr %low_b, align 4
  store i32 %1, ptr %high_b, align 4
    #dbg_declare(ptr %low_b, !1270, !DIExpression(), !1290)
    #dbg_declare(ptr %high_b, !1271, !DIExpression(), !1291)
  store ptr %rng, ptr %rng.dbg.spill, align 8
    #dbg_declare(ptr %rng.dbg.spill, !1272, !DIExpression(), !1292)
    #dbg_declare(ptr %zone, !1279, !DIExpression(), !1293)
  store ptr %low_b, ptr %self.dbg.spill.i14, align 8
    #dbg_declare(ptr %self.dbg.spill.i14, !1243, !DIExpression(), !1294)
  br label %bb1, !dbg !1296

bb20:                                             ; preds = %cleanup
  br label %bb21, !dbg !1297

cleanup:                                          ; preds = %bb13, %panic, %bb7, %bb4
  %4 = landingpad { ptr, i32 }
          cleanup
  %5 = extractvalue { ptr, i32 } %4, 0
  %6 = extractvalue { ptr, i32 } %4, 1
  store ptr %5, ptr %3, align 8
  %7 = getelementptr inbounds i8, ptr %3, i64 8
  store i32 %6, ptr %7, align 8
  br label %bb20

bb1:                                              ; preds = %start
  %low = load i32, ptr %low_b, align 4, !dbg !1298
  store i32 %low, ptr %low.dbg.spill, align 4, !dbg !1298
    #dbg_declare(ptr %low.dbg.spill, !1273, !DIExpression(), !1299)
  store ptr %high_b, ptr %self.dbg.spill.i13, align 8
    #dbg_declare(ptr %self.dbg.spill.i13, !1243, !DIExpression(), !1300)
  br label %bb2, !dbg !1302

bb2:                                              ; preds = %bb1
  %high = load i32, ptr %high_b, align 4, !dbg !1303
  store i32 %high, ptr %high.dbg.spill, align 4, !dbg !1303
    #dbg_declare(ptr %high.dbg.spill, !1275, !DIExpression(), !1304)
  %_10 = icmp sle i32 %low, %high, !dbg !1305
  br i1 %_10, label %bb3, label %bb4, !dbg !1305

bb4:                                              ; preds = %bb2
; invoke core::panicking::panic
  invoke void @_ZN4core9panicking5panic17h95d8269cf8bd4f7aE(ptr align 1 @alloc_954c2ef7b232b8f82cd1a3a8aa768241, i64 51, ptr align 8 @alloc_63bc32bb730b9e443af34950742b3642) #17
          to label %unreachable unwind label %cleanup, !dbg !1306

bb3:                                              ; preds = %bb2
  store i32 %high, ptr %self.dbg.spill.i5, align 4
    #dbg_declare(ptr %self.dbg.spill.i5, !1307, !DIExpression(), !1315)
  store i32 %low, ptr %rhs.dbg.spill.i4, align 4
    #dbg_declare(ptr %rhs.dbg.spill.i4, !1314, !DIExpression(), !1317)
  %_0.i6 = sub i32 %high, %low, !dbg !1318
  br label %bb5, !dbg !1319

unreachable:                                      ; preds = %panic, %bb4
  unreachable

bb5:                                              ; preds = %bb3
  store i32 %_0.i6, ptr %self.dbg.spill.i2, align 4
    #dbg_declare(ptr %self.dbg.spill.i2, !1320, !DIExpression(), !1324)
  store i32 1, ptr %rhs.dbg.spill.i1, align 4
    #dbg_declare(ptr %rhs.dbg.spill.i1, !1323, !DIExpression(), !1326)
  %_0.i3 = add i32 %_0.i6, 1, !dbg !1327
  br label %bb6, !dbg !1328

bb6:                                              ; preds = %bb5
  store i32 %_0.i3, ptr %range.dbg.spill, align 4, !dbg !1329
    #dbg_declare(ptr %range.dbg.spill, !1277, !DIExpression(), !1330)
  %8 = icmp eq i32 %_0.i3, 0, !dbg !1331
  br i1 %8, label %bb7, label %bb8, !dbg !1331

bb7:                                              ; preds = %bb6
; invoke rand::rng::Rng::gen
  %9 = invoke i32 @_ZN4rand3rng3Rng3gen17hff2fb9f641c9e70dE(ptr align 8 %rng)
          to label %bb23 unwind label %cleanup, !dbg !1332

bb8:                                              ; preds = %bb6
  br label %bb10, !dbg !1333

bb23:                                             ; preds = %bb7
  store i32 %9, ptr %_0, align 4, !dbg !1332
  br label %bb17, !dbg !1332

bb17:                                             ; preds = %bb25, %bb23
  br label %bb18, !dbg !1297

bb10:                                             ; preds = %bb8
  store i32 %_0.i3, ptr %self.dbg.spill.i10, align 4
    #dbg_declare(ptr %self.dbg.spill.i10, !1334, !DIExpression(), !1340)
  %10 = call i32 @llvm.ctlz.i32(i32 %_0.i3, i1 false), !dbg !1342
  store i32 %10, ptr %2, align 4, !dbg !1342
  %_0.i11 = load i32, ptr %2, align 4, !dbg !1342
  br label %bb12, !dbg !1343

bb12:                                             ; preds = %bb10
  %11 = and i32 %_0.i11, 31, !dbg !1344
  %_23 = shl i32 %_0.i3, %11, !dbg !1344
  store i32 %_23, ptr %self.dbg.spill.i8, align 4
    #dbg_declare(ptr %self.dbg.spill.i8, !1345, !DIExpression(), !1351)
  store i32 1, ptr %rhs.dbg.spill.i7, align 4
    #dbg_declare(ptr %rhs.dbg.spill.i7, !1350, !DIExpression(), !1353)
  %_0.i9 = sub i32 %_23, 1, !dbg !1354
  br label %bb24, !dbg !1355

bb24:                                             ; preds = %bb12
  store i32 %_0.i9, ptr %zone, align 4, !dbg !1344
  br label %bb13, !dbg !1344

bb13:                                             ; preds = %bb15, %bb11, %bb24
; invoke rand::rng::Rng::gen
  %v = invoke i32 @_ZN4rand3rng3Rng3gen17h99ca3cd61c230601E(ptr align 8 %rng)
          to label %bb14 unwind label %cleanup, !dbg !1356

bb9:                                              ; No predecessors!
  store i32 -1, ptr %unsigned_max.dbg.spill, align 4, !dbg !1357
    #dbg_declare(ptr %unsigned_max.dbg.spill, !1281, !DIExpression(), !1358)
  %_21 = sub i32 -1, %_0.i3, !dbg !1359
  %_20 = add i32 %_21, 1, !dbg !1360
  %_22 = icmp eq i32 %_0.i3, 0, !dbg !1360
  br i1 %_22, label %panic, label %bb11, !dbg !1360

bb11:                                             ; preds = %bb9
  %ints_to_reject = urem i32 %_20, %_0.i3, !dbg !1360
  store i32 %ints_to_reject, ptr %ints_to_reject.dbg.spill, align 4, !dbg !1360
    #dbg_declare(ptr %ints_to_reject.dbg.spill, !1283, !DIExpression(), !1361)
  %12 = sub i32 -1, %ints_to_reject, !dbg !1362
  store i32 %12, ptr %zone, align 4, !dbg !1362
  br label %bb13, !dbg !1363

panic:                                            ; preds = %bb9
; invoke core::panicking::panic_const::panic_const_rem_by_zero
  invoke void @_ZN4core9panicking11panic_const23panic_const_rem_by_zero17h8caa292af681fd98E(ptr align 8 @alloc_63bc32bb730b9e443af34950742b3642) #17
          to label %unreachable unwind label %cleanup, !dbg !1360

bb14:                                             ; preds = %bb13
  store i32 %v, ptr %v.dbg.spill, align 4, !dbg !1356
    #dbg_declare(ptr %v.dbg.spill, !1285, !DIExpression(), !1364)
  store i32 %v, ptr %self.dbg.spill.i12, align 4
    #dbg_declare(ptr %self.dbg.spill.i12, !1365, !DIExpression(), !1380)
  store i32 %_0.i3, ptr %x.dbg.spill.i, align 4
    #dbg_declare(ptr %x.dbg.spill.i, !1377, !DIExpression(), !1382)
  %_4.i = zext i32 %v to i64, !dbg !1383
  %_5.i = zext i32 %_0.i3 to i64, !dbg !1384
  %tmp.i = mul i64 %_4.i, %_5.i, !dbg !1383
  store i64 %tmp.i, ptr %tmp.dbg.spill.i, align 8, !dbg !1383
    #dbg_declare(ptr %tmp.dbg.spill.i, !1378, !DIExpression(), !1385)
  %_7.i = lshr i64 %tmp.i, 32, !dbg !1386
  %_6.i = trunc i64 %_7.i to i32, !dbg !1386
  %_8.i = trunc i64 %tmp.i to i32, !dbg !1387
  %13 = insertvalue { i32, i32 } poison, i32 %_6.i, 0, !dbg !1388
  %14 = insertvalue { i32, i32 } %13, i32 %_8.i, 1, !dbg !1388
  br label %bb15, !dbg !1388

bb15:                                             ; preds = %bb14
  %_28.0 = extractvalue { i32, i32 } %14, 0, !dbg !1389
  %_28.1 = extractvalue { i32, i32 } %14, 1, !dbg !1389
  store i32 %_28.0, ptr %hi.dbg.spill, align 4, !dbg !1390
    #dbg_declare(ptr %hi.dbg.spill, !1287, !DIExpression(), !1391)
  store i32 %_28.1, ptr %lo.dbg.spill, align 4, !dbg !1392
    #dbg_declare(ptr %lo.dbg.spill, !1289, !DIExpression(), !1393)
  %_30 = load i32, ptr %zone, align 4, !dbg !1394
  %_29 = icmp ule i32 %_28.1, %_30, !dbg !1395
  br i1 %_29, label %bb16, label %bb13, !dbg !1395

bb16:                                             ; preds = %bb15
  store i32 %low, ptr %self.dbg.spill.i, align 4
    #dbg_declare(ptr %self.dbg.spill.i, !1320, !DIExpression(), !1396)
  store i32 %_28.0, ptr %rhs.dbg.spill.i, align 4
    #dbg_declare(ptr %rhs.dbg.spill.i, !1323, !DIExpression(), !1398)
  %_0.i = add i32 %low, %_28.0, !dbg !1399
  br label %bb25, !dbg !1400

bb25:                                             ; preds = %bb16
  store i32 %_0.i, ptr %_0, align 4, !dbg !1401
  br label %bb17, !dbg !1401

bb18:                                             ; preds = %bb17
  %15 = load i32, ptr %_0, align 4, !dbg !1402
  ret i32 %15, !dbg !1402

bb21:                                             ; preds = %bb20
  %16 = load ptr, ptr %3, align 8, !dbg !1403
  %17 = getelementptr inbounds i8, ptr %3, i64 8, !dbg !1403
  %18 = load i32, ptr %17, align 8, !dbg !1403
  %19 = insertvalue { ptr, i32 } poison, ptr %16, 0, !dbg !1403
  %20 = insertvalue { ptr, i32 } %19, i32 %18, 1, !dbg !1403
  resume { ptr, i32 } %20, !dbg !1403
}

; <rand::distributions::uniform::UniformInt<usize> as rand::distributions::uniform::UniformSampler>::sample_single
; Function Attrs: inlinehint nonlazybind uwtable
define internal i64 @"_ZN118_$LT$rand..distributions..uniform..UniformInt$LT$usize$GT$$u20$as$u20$rand..distributions..uniform..UniformSampler$GT$13sample_single17hd852801b499e529dE"(i64 %0, i64 %1, ptr align 8 %rng) unnamed_addr #1 personality ptr @rust_eh_personality !dbg !1404 {
start:
  %self.dbg.spill.i1 = alloca [8 x i8], align 8
  %self.dbg.spill.i = alloca [8 x i8], align 8
  %high.dbg.spill = alloca [8 x i8], align 8
  %low.dbg.spill = alloca [8 x i8], align 8
  %2 = alloca [16 x i8], align 8
  %rng.dbg.spill = alloca [8 x i8], align 8
  %high_b = alloca [8 x i8], align 8
  %low_b = alloca [8 x i8], align 8
  store i64 %0, ptr %low_b, align 8
  store i64 %1, ptr %high_b, align 8
    #dbg_declare(ptr %low_b, !1409, !DIExpression(), !1419)
    #dbg_declare(ptr %high_b, !1410, !DIExpression(), !1420)
  store ptr %rng, ptr %rng.dbg.spill, align 8
    #dbg_declare(ptr %rng.dbg.spill, !1411, !DIExpression(), !1421)
  store ptr %low_b, ptr %self.dbg.spill.i1, align 8
    #dbg_declare(ptr %self.dbg.spill.i1, !1422, !DIExpression(), !1429)
  br label %bb1, !dbg !1431

bb8:                                              ; preds = %cleanup
  br label %bb9, !dbg !1432

cleanup:                                          ; preds = %bb3, %bb4
  %3 = landingpad { ptr, i32 }
          cleanup
  %4 = extractvalue { ptr, i32 } %3, 0
  %5 = extractvalue { ptr, i32 } %3, 1
  store ptr %4, ptr %2, align 8
  %6 = getelementptr inbounds i8, ptr %2, i64 8
  store i32 %5, ptr %6, align 8
  br label %bb8

bb1:                                              ; preds = %start
  %low = load i64, ptr %low_b, align 8, !dbg !1433
  store i64 %low, ptr %low.dbg.spill, align 8, !dbg !1433
    #dbg_declare(ptr %low.dbg.spill, !1412, !DIExpression(), !1434)
  store ptr %high_b, ptr %self.dbg.spill.i, align 8
    #dbg_declare(ptr %self.dbg.spill.i, !1422, !DIExpression(), !1435)
  br label %bb2, !dbg !1437

bb2:                                              ; preds = %bb1
  %high = load i64, ptr %high_b, align 8, !dbg !1438
  store i64 %high, ptr %high.dbg.spill, align 8, !dbg !1438
    #dbg_declare(ptr %high.dbg.spill, !1414, !DIExpression(), !1439)
  %_10 = icmp ult i64 %low, %high, !dbg !1440
  br i1 %_10, label %bb3, label %bb4, !dbg !1440

bb4:                                              ; preds = %bb2
; invoke core::panicking::panic
  invoke void @_ZN4core9panicking5panic17h95d8269cf8bd4f7aE(ptr align 1 @alloc_423aa3b6c6652843f74515eef8a4d977, i64 42, ptr align 8 @alloc_46f6dde62025dfa9cb190716952570c6) #17
          to label %unreachable unwind label %cleanup, !dbg !1441

bb3:                                              ; preds = %bb2
  %_12 = sub i64 %high, 1, !dbg !1442
; invoke <rand::distributions::uniform::UniformInt<usize> as rand::distributions::uniform::UniformSampler>::sample_single_inclusive
  %_0 = invoke i64 @"_ZN118_$LT$rand..distributions..uniform..UniformInt$LT$usize$GT$$u20$as$u20$rand..distributions..uniform..UniformSampler$GT$23sample_single_inclusive17h79e5fae8e8c7fab1E"(i64 %low, i64 %_12, ptr align 8 %rng)
          to label %bb5 unwind label %cleanup, !dbg !1443

unreachable:                                      ; preds = %bb4
  unreachable

bb5:                                              ; preds = %bb3
  br label %bb6, !dbg !1432

bb6:                                              ; preds = %bb5
  ret i64 %_0, !dbg !1444

bb9:                                              ; preds = %bb8
  %7 = load ptr, ptr %2, align 8, !dbg !1445
  %8 = getelementptr inbounds i8, ptr %2, i64 8, !dbg !1445
  %9 = load i32, ptr %8, align 8, !dbg !1445
  %10 = insertvalue { ptr, i32 } poison, ptr %7, 0, !dbg !1445
  %11 = insertvalue { ptr, i32 } %10, i32 %9, 1, !dbg !1445
  resume { ptr, i32 } %11, !dbg !1445
}

; <rand::distributions::uniform::UniformInt<usize> as rand::distributions::uniform::UniformSampler>::sample_single_inclusive
; Function Attrs: inlinehint nonlazybind uwtable
define internal i64 @"_ZN118_$LT$rand..distributions..uniform..UniformInt$LT$usize$GT$$u20$as$u20$rand..distributions..uniform..UniformSampler$GT$23sample_single_inclusive17h79e5fae8e8c7fab1E"(i64 %0, i64 %1, ptr align 8 %rng) unnamed_addr #1 personality ptr @rust_eh_personality !dbg !1446 {
start:
  %self.dbg.spill.i14 = alloca [8 x i8], align 8
  %self.dbg.spill.i13 = alloca [8 x i8], align 8
  %tmp.dbg.spill.i.i = alloca [16 x i8], align 16
  %x.dbg.spill.i.i = alloca [8 x i8], align 8
  %self.dbg.spill.i.i = alloca [8 x i8], align 8
  %low.dbg.spill.i = alloca [8 x i8], align 8
  %high.dbg.spill.i = alloca [8 x i8], align 8
  %x.dbg.spill.i = alloca [8 x i8], align 8
  %self.dbg.spill.i12 = alloca [8 x i8], align 8
  %2 = alloca [4 x i8], align 4
  %self.dbg.spill.i10 = alloca [8 x i8], align 8
  %rhs.dbg.spill.i7 = alloca [8 x i8], align 8
  %self.dbg.spill.i8 = alloca [8 x i8], align 8
  %rhs.dbg.spill.i4 = alloca [8 x i8], align 8
  %self.dbg.spill.i5 = alloca [8 x i8], align 8
  %rhs.dbg.spill.i1 = alloca [8 x i8], align 8
  %self.dbg.spill.i2 = alloca [8 x i8], align 8
  %rhs.dbg.spill.i = alloca [8 x i8], align 8
  %self.dbg.spill.i = alloca [8 x i8], align 8
  %lo.dbg.spill = alloca [8 x i8], align 8
  %hi.dbg.spill = alloca [8 x i8], align 8
  %v.dbg.spill = alloca [8 x i8], align 8
  %ints_to_reject.dbg.spill = alloca [8 x i8], align 8
  %unsigned_max.dbg.spill = alloca [8 x i8], align 8
  %range.dbg.spill = alloca [8 x i8], align 8
  %high.dbg.spill = alloca [8 x i8], align 8
  %low.dbg.spill = alloca [8 x i8], align 8
  %3 = alloca [16 x i8], align 8
  %rng.dbg.spill = alloca [8 x i8], align 8
  %zone = alloca [8 x i8], align 8
  %_0 = alloca [8 x i8], align 8
  %high_b = alloca [8 x i8], align 8
  %low_b = alloca [8 x i8], align 8
  store i64 %0, ptr %low_b, align 8
  store i64 %1, ptr %high_b, align 8
    #dbg_declare(ptr %low_b, !1448, !DIExpression(), !1468)
    #dbg_declare(ptr %high_b, !1449, !DIExpression(), !1469)
  store ptr %rng, ptr %rng.dbg.spill, align 8
    #dbg_declare(ptr %rng.dbg.spill, !1450, !DIExpression(), !1470)
    #dbg_declare(ptr %zone, !1457, !DIExpression(), !1471)
  store ptr %low_b, ptr %self.dbg.spill.i14, align 8
    #dbg_declare(ptr %self.dbg.spill.i14, !1422, !DIExpression(), !1472)
  br label %bb1, !dbg !1474

bb20:                                             ; preds = %cleanup
  br label %bb21, !dbg !1475

cleanup:                                          ; preds = %bb13, %panic, %bb7, %bb4
  %4 = landingpad { ptr, i32 }
          cleanup
  %5 = extractvalue { ptr, i32 } %4, 0
  %6 = extractvalue { ptr, i32 } %4, 1
  store ptr %5, ptr %3, align 8
  %7 = getelementptr inbounds i8, ptr %3, i64 8
  store i32 %6, ptr %7, align 8
  br label %bb20

bb1:                                              ; preds = %start
  %low = load i64, ptr %low_b, align 8, !dbg !1476
  store i64 %low, ptr %low.dbg.spill, align 8, !dbg !1476
    #dbg_declare(ptr %low.dbg.spill, !1451, !DIExpression(), !1477)
  store ptr %high_b, ptr %self.dbg.spill.i13, align 8
    #dbg_declare(ptr %self.dbg.spill.i13, !1422, !DIExpression(), !1478)
  br label %bb2, !dbg !1480

bb2:                                              ; preds = %bb1
  %high = load i64, ptr %high_b, align 8, !dbg !1481
  store i64 %high, ptr %high.dbg.spill, align 8, !dbg !1481
    #dbg_declare(ptr %high.dbg.spill, !1453, !DIExpression(), !1482)
  %_10 = icmp ule i64 %low, %high, !dbg !1483
  br i1 %_10, label %bb3, label %bb4, !dbg !1483

bb4:                                              ; preds = %bb2
; invoke core::panicking::panic
  invoke void @_ZN4core9panicking5panic17h95d8269cf8bd4f7aE(ptr align 1 @alloc_954c2ef7b232b8f82cd1a3a8aa768241, i64 51, ptr align 8 @alloc_46f6dde62025dfa9cb190716952570c6) #17
          to label %unreachable unwind label %cleanup, !dbg !1484

bb3:                                              ; preds = %bb2
  store i64 %high, ptr %self.dbg.spill.i8, align 8
    #dbg_declare(ptr %self.dbg.spill.i8, !1485, !DIExpression(), !1489)
  store i64 %low, ptr %rhs.dbg.spill.i7, align 8
    #dbg_declare(ptr %rhs.dbg.spill.i7, !1488, !DIExpression(), !1491)
  %_0.i9 = sub i64 %high, %low, !dbg !1492
  br label %bb5, !dbg !1493

unreachable:                                      ; preds = %panic, %bb4
  unreachable

bb5:                                              ; preds = %bb3
  store i64 %_0.i9, ptr %self.dbg.spill.i2, align 8
    #dbg_declare(ptr %self.dbg.spill.i2, !1494, !DIExpression(), !1498)
  store i64 1, ptr %rhs.dbg.spill.i1, align 8
    #dbg_declare(ptr %rhs.dbg.spill.i1, !1497, !DIExpression(), !1500)
  %_0.i3 = add i64 %_0.i9, 1, !dbg !1501
  br label %bb6, !dbg !1502

bb6:                                              ; preds = %bb5
  store i64 %_0.i3, ptr %range.dbg.spill, align 8, !dbg !1503
    #dbg_declare(ptr %range.dbg.spill, !1455, !DIExpression(), !1504)
  %8 = icmp eq i64 %_0.i3, 0, !dbg !1505
  br i1 %8, label %bb7, label %bb8, !dbg !1505

bb7:                                              ; preds = %bb6
; invoke rand::rng::Rng::gen
  %9 = invoke i64 @_ZN4rand3rng3Rng3gen17h467b59588fbc3575E(ptr align 8 %rng)
          to label %bb23 unwind label %cleanup, !dbg !1506

bb8:                                              ; preds = %bb6
  br label %bb10, !dbg !1507

bb23:                                             ; preds = %bb7
  store i64 %9, ptr %_0, align 8, !dbg !1506
  br label %bb17, !dbg !1506

bb17:                                             ; preds = %bb25, %bb23
  br label %bb18, !dbg !1475

bb10:                                             ; preds = %bb8
  store i64 %_0.i3, ptr %self.dbg.spill.i10, align 8
    #dbg_declare(ptr %self.dbg.spill.i10, !1508, !DIExpression(), !1513)
  %10 = call i64 @llvm.ctlz.i64(i64 %_0.i3, i1 false), !dbg !1515
  %11 = trunc i64 %10 to i32, !dbg !1515
  store i32 %11, ptr %2, align 4, !dbg !1515
  %_0.i11 = load i32, ptr %2, align 4, !dbg !1515
  br label %bb12, !dbg !1516

bb12:                                             ; preds = %bb10
  %12 = and i32 %_0.i11, 63, !dbg !1517
  %13 = zext i32 %12 to i64, !dbg !1517
  %_22 = shl i64 %_0.i3, %13, !dbg !1517
  store i64 %_22, ptr %self.dbg.spill.i5, align 8
    #dbg_declare(ptr %self.dbg.spill.i5, !1485, !DIExpression(), !1518)
  store i64 1, ptr %rhs.dbg.spill.i4, align 8
    #dbg_declare(ptr %rhs.dbg.spill.i4, !1488, !DIExpression(), !1520)
  %_0.i6 = sub i64 %_22, 1, !dbg !1521
  br label %bb24, !dbg !1522

bb24:                                             ; preds = %bb12
  store i64 %_0.i6, ptr %zone, align 8, !dbg !1517
  br label %bb13, !dbg !1517

bb13:                                             ; preds = %bb15, %bb11, %bb24
; invoke rand::rng::Rng::gen
  %v = invoke i64 @_ZN4rand3rng3Rng3gen17h467b59588fbc3575E(ptr align 8 %rng)
          to label %bb14 unwind label %cleanup, !dbg !1523

bb9:                                              ; No predecessors!
  store i64 -1, ptr %unsigned_max.dbg.spill, align 8, !dbg !1524
    #dbg_declare(ptr %unsigned_max.dbg.spill, !1459, !DIExpression(), !1525)
  %_20 = sub i64 -1, %_0.i3, !dbg !1526
  %_19 = add i64 %_20, 1, !dbg !1527
  %_21 = icmp eq i64 %_0.i3, 0, !dbg !1527
  br i1 %_21, label %panic, label %bb11, !dbg !1527

bb11:                                             ; preds = %bb9
  %ints_to_reject = urem i64 %_19, %_0.i3, !dbg !1527
  store i64 %ints_to_reject, ptr %ints_to_reject.dbg.spill, align 8, !dbg !1527
    #dbg_declare(ptr %ints_to_reject.dbg.spill, !1461, !DIExpression(), !1528)
  %14 = sub i64 -1, %ints_to_reject, !dbg !1529
  store i64 %14, ptr %zone, align 8, !dbg !1529
  br label %bb13, !dbg !1530

panic:                                            ; preds = %bb9
; invoke core::panicking::panic_const::panic_const_rem_by_zero
  invoke void @_ZN4core9panicking11panic_const23panic_const_rem_by_zero17h8caa292af681fd98E(ptr align 8 @alloc_46f6dde62025dfa9cb190716952570c6) #17
          to label %unreachable unwind label %cleanup, !dbg !1527

bb14:                                             ; preds = %bb13
  store i64 %v, ptr %v.dbg.spill, align 8, !dbg !1523
    #dbg_declare(ptr %v.dbg.spill, !1463, !DIExpression(), !1531)
  store i64 %v, ptr %self.dbg.spill.i12, align 8
    #dbg_declare(ptr %self.dbg.spill.i12, !1532, !DIExpression(), !1546)
  store i64 %_0.i3, ptr %x.dbg.spill.i, align 8
    #dbg_declare(ptr %x.dbg.spill.i, !1542, !DIExpression(), !1548)
  store i64 %v, ptr %self.dbg.spill.i.i, align 8
    #dbg_declare(ptr %self.dbg.spill.i.i, !1549, !DIExpression(), !1562)
  store i64 %_0.i3, ptr %x.dbg.spill.i.i, align 8
    #dbg_declare(ptr %x.dbg.spill.i.i, !1559, !DIExpression(), !1564)
  %_4.i.i = zext i64 %v to i128, !dbg !1565
  %_5.i.i = zext i64 %_0.i3 to i128, !dbg !1566
  %tmp.i.i = mul i128 %_4.i.i, %_5.i.i, !dbg !1565
  store i128 %tmp.i.i, ptr %tmp.dbg.spill.i.i, align 16, !dbg !1565
    #dbg_declare(ptr %tmp.dbg.spill.i.i, !1560, !DIExpression(), !1567)
  %_7.i.i = lshr i128 %tmp.i.i, 64, !dbg !1568
  %_6.i.i = trunc i128 %_7.i.i to i64, !dbg !1568
  %_8.i.i = trunc i128 %tmp.i.i to i64, !dbg !1569
  %15 = insertvalue { i64, i64 } poison, i64 %_6.i.i, 0, !dbg !1570
  %16 = insertvalue { i64, i64 } %15, i64 %_8.i.i, 1, !dbg !1570
  store i64 %_6.i.i, ptr %high.dbg.spill.i, align 8, !dbg !1571
    #dbg_declare(ptr %high.dbg.spill.i, !1543, !DIExpression(), !1572)
  store i64 %_8.i.i, ptr %low.dbg.spill.i, align 8, !dbg !1573
    #dbg_declare(ptr %low.dbg.spill.i, !1545, !DIExpression(), !1574)
  %17 = insertvalue { i64, i64 } poison, i64 %_6.i.i, 0, !dbg !1575
  %18 = insertvalue { i64, i64 } %17, i64 %_8.i.i, 1, !dbg !1575
  br label %bb15, !dbg !1575

bb15:                                             ; preds = %bb14
  %_27.0 = extractvalue { i64, i64 } %18, 0, !dbg !1576
  %_27.1 = extractvalue { i64, i64 } %18, 1, !dbg !1576
  store i64 %_27.0, ptr %hi.dbg.spill, align 8, !dbg !1577
    #dbg_declare(ptr %hi.dbg.spill, !1465, !DIExpression(), !1578)
  store i64 %_27.1, ptr %lo.dbg.spill, align 8, !dbg !1579
    #dbg_declare(ptr %lo.dbg.spill, !1467, !DIExpression(), !1580)
  %_29 = load i64, ptr %zone, align 8, !dbg !1581
  %_28 = icmp ule i64 %_27.1, %_29, !dbg !1582
  br i1 %_28, label %bb16, label %bb13, !dbg !1582

bb16:                                             ; preds = %bb15
  store i64 %low, ptr %self.dbg.spill.i, align 8
    #dbg_declare(ptr %self.dbg.spill.i, !1494, !DIExpression(), !1583)
  store i64 %_27.0, ptr %rhs.dbg.spill.i, align 8
    #dbg_declare(ptr %rhs.dbg.spill.i, !1497, !DIExpression(), !1585)
  %_0.i = add i64 %low, %_27.0, !dbg !1586
  br label %bb25, !dbg !1587

bb25:                                             ; preds = %bb16
  store i64 %_0.i, ptr %_0, align 8, !dbg !1588
  br label %bb17, !dbg !1588

bb18:                                             ; preds = %bb17
  %19 = load i64, ptr %_0, align 8, !dbg !1589
  ret i64 %19, !dbg !1589

bb21:                                             ; preds = %bb20
  %20 = load ptr, ptr %3, align 8, !dbg !1590
  %21 = getelementptr inbounds i8, ptr %3, i64 8, !dbg !1590
  %22 = load i32, ptr %21, align 8, !dbg !1590
  %23 = insertvalue { ptr, i32 } poison, ptr %20, 0, !dbg !1590
  %24 = insertvalue { ptr, i32 } %23, i32 %22, 1, !dbg !1590
  resume { ptr, i32 } %24, !dbg !1590
}

; <<alloc::vec::into_iter::IntoIter<T,A> as core::ops::drop::Drop>::drop::DropGuard<T,A> as core::ops::drop::Drop>::drop
; Function Attrs: nonlazybind uwtable
define internal void @"_ZN157_$LT$$LT$alloc..vec..into_iter..IntoIter$LT$T$C$A$GT$$u20$as$u20$core..ops..drop..Drop$GT$..drop..DropGuard$LT$T$C$A$GT$$u20$as$u20$core..ops..drop..Drop$GT$4drop17h6e927153a781dd1dE"(ptr align 8 %self) unnamed_addr #0 !dbg !1591 {
start:
  %cap.dbg.spill = alloca [8 x i8], align 8
  %ptr.dbg.spill2 = alloca [8 x i8], align 8
  %capacity.dbg.spill = alloca [8 x i8], align 8
  %ptr.dbg.spill = alloca [8 x i8], align 8
  %src.dbg.spill = alloca [8 x i8], align 8
  %slot.dbg.spill = alloca [8 x i8], align 8
  %alloc.dbg.spill = alloca [0 x i8], align 1
  %self.dbg.spill = alloca [8 x i8], align 8
  %capacity = alloca [8 x i8], align 8
  %_4 = alloca [16 x i8], align 8
  store ptr %self, ptr %self.dbg.spill, align 8
    #dbg_declare(ptr %self.dbg.spill, !1603, !DIExpression(), !1606)
    #dbg_declare(ptr %alloc.dbg.spill, !1604, !DIExpression(), !1607)
    #dbg_declare(ptr %alloc.dbg.spill, !1608, !DIExpression(), !1624)
    #dbg_declare(ptr %alloc.dbg.spill, !1626, !DIExpression(), !1634)
    #dbg_declare(ptr %capacity, !1622, !DIExpression(), !1636)
  %_7 = load ptr, ptr %self, align 8, !dbg !1637
  %slot = getelementptr inbounds i8, ptr %_7, i64 32, !dbg !1637
  store ptr %slot, ptr %slot.dbg.spill, align 8, !dbg !1637
    #dbg_declare(ptr %slot.dbg.spill, !1638, !DIExpression(), !1646)
  %src = getelementptr inbounds i8, ptr %_7, i64 32, !dbg !1648
  store ptr %src, ptr %src.dbg.spill, align 8, !dbg !1648
    #dbg_declare(ptr %src.dbg.spill, !1649, !DIExpression(), !1655)
  %_8 = load ptr, ptr %self, align 8, !dbg !1657
  %ptr = load ptr, ptr %_8, align 8, !dbg !1657
  store ptr %ptr, ptr %ptr.dbg.spill, align 8, !dbg !1657
    #dbg_declare(ptr %ptr.dbg.spill, !1618, !DIExpression(), !1658)
    #dbg_declare(ptr %ptr.dbg.spill, !1659, !DIExpression(), !1667)
    #dbg_declare(ptr %ptr.dbg.spill, !1669, !DIExpression(), !1676)
  %_9 = load ptr, ptr %self, align 8, !dbg !1678
  %0 = getelementptr inbounds i8, ptr %_9, i64 16, !dbg !1678
  %capacity1 = load i64, ptr %0, align 8, !dbg !1678
  store i64 %capacity1, ptr %capacity.dbg.spill, align 8, !dbg !1678
    #dbg_declare(ptr %capacity.dbg.spill, !1619, !DIExpression(), !1679)
    #dbg_declare(ptr %capacity.dbg.spill, !1680, !DIExpression(), !1686)
  store ptr %ptr, ptr %ptr.dbg.spill2, align 8, !dbg !1688
    #dbg_declare(ptr %ptr.dbg.spill2, !1620, !DIExpression(), !1689)
    #dbg_declare(ptr %ptr.dbg.spill2, !1632, !DIExpression(), !1690)
    #dbg_declare(ptr %ptr.dbg.spill2, !1691, !DIExpression(), !1697)
  br label %bb4, !dbg !1699

bb4:                                              ; preds = %start
  store i64 %capacity1, ptr %capacity, align 8, !dbg !1700
  br label %bb2, !dbg !1701

bb2:                                              ; preds = %bb4
  %cap = load i64, ptr %capacity, align 8, !dbg !1702
  store i64 %cap, ptr %cap.dbg.spill, align 8, !dbg !1702
    #dbg_declare(ptr %cap.dbg.spill, !1633, !DIExpression(), !1703)
  store i64 %cap, ptr %_4, align 8, !dbg !1704
  %1 = getelementptr inbounds i8, ptr %_4, i64 8, !dbg !1704
  store ptr %ptr, ptr %1, align 8, !dbg !1704
; call core::ptr::drop_in_place<alloc::raw_vec::RawVec<std::ffi::os_str::OsString>>
  call void @"_ZN4core3ptr77drop_in_place$LT$alloc..raw_vec..RawVec$LT$std..ffi..os_str..OsString$GT$$GT$17h65af24f4c854a39aE"(ptr align 8 %_4), !dbg !1705
  ret void, !dbg !1706

bb3:                                              ; No predecessors!
  unreachable
}

; std::rt::lang_start
; Function Attrs: nonlazybind uwtable
define hidden i64 @_ZN3std2rt10lang_start17he5a345a6d982d051E(ptr %main, i64 %argc, ptr %argv, i8 %sigpipe) unnamed_addr #0 !dbg !1707 {
start:
  %v.dbg.spill = alloca [8 x i8], align 8
  %sigpipe.dbg.spill = alloca [1 x i8], align 1
  %argv.dbg.spill = alloca [8 x i8], align 8
  %argc.dbg.spill = alloca [8 x i8], align 8
  %main.dbg.spill = alloca [8 x i8], align 8
  %_8 = alloca [8 x i8], align 8
  %_5 = alloca [8 x i8], align 8
  store ptr %main, ptr %main.dbg.spill, align 8
    #dbg_declare(ptr %main.dbg.spill, !1714, !DIExpression(), !1720)
  store i64 %argc, ptr %argc.dbg.spill, align 8
    #dbg_declare(ptr %argc.dbg.spill, !1715, !DIExpression(), !1721)
  store ptr %argv, ptr %argv.dbg.spill, align 8
    #dbg_declare(ptr %argv.dbg.spill, !1716, !DIExpression(), !1722)
  store i8 %sigpipe, ptr %sigpipe.dbg.spill, align 1
    #dbg_declare(ptr %sigpipe.dbg.spill, !1717, !DIExpression(), !1723)
  store ptr %main, ptr %_8, align 8, !dbg !1724
; call std::rt::lang_start_internal
  %0 = call i64 @_ZN3std2rt19lang_start_internal17h78dd36c15a6b42b8E(ptr align 1 %_8, ptr align 8 @vtable.0, i64 %argc, ptr %argv, i8 %sigpipe), !dbg !1725
  store i64 %0, ptr %_5, align 8, !dbg !1725
  %v = load i64, ptr %_5, align 8, !dbg !1726
  store i64 %v, ptr %v.dbg.spill, align 8, !dbg !1726
    #dbg_declare(ptr %v.dbg.spill, !1718, !DIExpression(), !1727)
  ret i64 %v, !dbg !1728
}

; std::rt::lang_start::{{closure}}
; Function Attrs: inlinehint nonlazybind uwtable
define internal i32 @"_ZN3std2rt10lang_start28_$u7b$$u7b$closure$u7d$$u7d$17h317b6f8001531df8E"(ptr align 8 %_1) unnamed_addr #1 !dbg !1729 {
start:
  %self.dbg.spill = alloca [8 x i8], align 8
  %_1.dbg.spill = alloca [8 x i8], align 8
  %self = alloca [1 x i8], align 1
  store ptr %_1, ptr %_1.dbg.spill, align 8
    #dbg_declare(ptr %_1.dbg.spill, !1734, !DIExpression(DW_OP_deref), !1735)
    #dbg_declare(ptr %self, !1736, !DIExpression(), !1752)
  %_4 = load ptr, ptr %_1, align 8, !dbg !1754
; call std::sys::backtrace::__rust_begin_short_backtrace
  call void @_ZN3std3sys9backtrace28__rust_begin_short_backtrace17h78d3a8238ae00afdE(ptr %_4), !dbg !1755
; call <() as std::process::Termination>::report
  %0 = call i8 @"_ZN54_$LT$$LP$$RP$$u20$as$u20$std..process..Termination$GT$6report17h14d684c4a5727126E"(), !dbg !1755
  store i8 %0, ptr %self, align 1, !dbg !1755
  store ptr %self, ptr %self.dbg.spill, align 8, !dbg !1756
    #dbg_declare(ptr %self.dbg.spill, !1757, !DIExpression(), !1765)
  %_6 = load i8, ptr %self, align 1, !dbg !1767
  %_0 = zext i8 %_6 to i32, !dbg !1767
  ret i32 %_0, !dbg !1768
}

; std::sys::backtrace::__rust_begin_short_backtrace
; Function Attrs: noinline nonlazybind uwtable
define internal void @_ZN3std3sys9backtrace28__rust_begin_short_backtrace17h78d3a8238ae00afdE(ptr %f) unnamed_addr #2 !dbg !1769 {
start:
  %dummy.dbg.spill = alloca [0 x i8], align 1
  %f.dbg.spill = alloca [8 x i8], align 8
  %result.dbg.spill = alloca [0 x i8], align 1
    #dbg_declare(ptr %result.dbg.spill, !1776, !DIExpression(), !1780)
  store ptr %f, ptr %f.dbg.spill, align 8
    #dbg_declare(ptr %f.dbg.spill, !1775, !DIExpression(), !1781)
    #dbg_declare(ptr %dummy.dbg.spill, !1782, !DIExpression(), !1789)
; call core::ops::function::FnOnce::call_once
  call void @_ZN4core3ops8function6FnOnce9call_once17haefcb179a1939253E(ptr %f), !dbg !1791
  call void asm sideeffect "", "~{memory}"(), !dbg !1792, !srcloc !1793
  ret void, !dbg !1794
}

; <&T as core::fmt::Debug>::fmt
; Function Attrs: nonlazybind uwtable
define internal zeroext i1 @"_ZN42_$LT$$RF$T$u20$as$u20$core..fmt..Debug$GT$3fmt17h078d54dbaff3d897E"(ptr align 8 %self, ptr align 8 %f) unnamed_addr #0 !dbg !1795 {
start:
  %f.dbg.spill = alloca [8 x i8], align 8
  %self.dbg.spill = alloca [8 x i8], align 8
  store ptr %self, ptr %self.dbg.spill, align 8
    #dbg_declare(ptr %self.dbg.spill, !1801, !DIExpression(), !1805)
  store ptr %f, ptr %f.dbg.spill, align 8
    #dbg_declare(ptr %f.dbg.spill, !1802, !DIExpression(), !1806)
  %_3 = load ptr, ptr %self, align 8, !dbg !1807
; call <core::option::Option<T> as core::fmt::Debug>::fmt
  %_0 = call zeroext i1 @"_ZN66_$LT$core..option..Option$LT$T$GT$$u20$as$u20$core..fmt..Debug$GT$3fmt17h09847ecd1c871575E"(ptr align 8 %_3, ptr align 8 %f), !dbg !1808
  ret i1 %_0, !dbg !1809
}

; <usize as core::iter::range::Step>::steps_between
; Function Attrs: inlinehint nonlazybind uwtable
define internal void @"_ZN49_$LT$usize$u20$as$u20$core..iter..range..Step$GT$13steps_between17he24cace596fb66e6E"(ptr sret([24 x i8]) align 8 %_0, ptr align 8 %start1, ptr align 8 %end) unnamed_addr #1 !dbg !1810 {
start:
  %steps.dbg.spill = alloca [8 x i8], align 8
  %end.dbg.spill = alloca [8 x i8], align 8
  %start.dbg.spill = alloca [8 x i8], align 8
  %_7 = alloca [16 x i8], align 8
  store ptr %start1, ptr %start.dbg.spill, align 8
    #dbg_declare(ptr %start.dbg.spill, !1817, !DIExpression(), !1821)
  store ptr %end, ptr %end.dbg.spill, align 8
    #dbg_declare(ptr %end.dbg.spill, !1818, !DIExpression(), !1822)
  %_4 = load i64, ptr %start1, align 8, !dbg !1823
  %_5 = load i64, ptr %end, align 8, !dbg !1824
  %_3 = icmp ule i64 %_4, %_5, !dbg !1823
  br i1 %_3, label %bb1, label %bb2, !dbg !1823

bb2:                                              ; preds = %start
  store i64 0, ptr %_0, align 8, !dbg !1825
  %0 = load i64, ptr @0, align 8, !dbg !1825
  %1 = load i64, ptr getelementptr inbounds (i8, ptr @0, i64 8), align 8, !dbg !1825
  %2 = getelementptr inbounds i8, ptr %_0, i64 8, !dbg !1825
  store i64 %0, ptr %2, align 8, !dbg !1825
  %3 = getelementptr inbounds i8, ptr %2, i64 8, !dbg !1825
  store i64 %1, ptr %3, align 8, !dbg !1825
  br label %bb3, !dbg !1826

bb1:                                              ; preds = %start
  %steps = sub i64 %_5, %_4, !dbg !1827
  store i64 %steps, ptr %steps.dbg.spill, align 8, !dbg !1827
    #dbg_declare(ptr %steps.dbg.spill, !1819, !DIExpression(), !1828)
  %4 = getelementptr inbounds i8, ptr %_7, i64 8, !dbg !1829
  store i64 %steps, ptr %4, align 8, !dbg !1829
  store i64 1, ptr %_7, align 8, !dbg !1829
  store i64 %steps, ptr %_0, align 8, !dbg !1830
  %5 = load i64, ptr %_7, align 8, !dbg !1830
  %6 = getelementptr inbounds i8, ptr %_7, i64 8, !dbg !1830
  %7 = load i64, ptr %6, align 8, !dbg !1830
  %8 = getelementptr inbounds i8, ptr %_0, i64 8, !dbg !1830
  store i64 %5, ptr %8, align 8, !dbg !1830
  %9 = getelementptr inbounds i8, ptr %8, i64 8, !dbg !1830
  store i64 %7, ptr %9, align 8, !dbg !1830
  br label %bb3, !dbg !1826

bb3:                                              ; preds = %bb1, %bb2
  ret void, !dbg !1831
}

; <usize as core::iter::range::Step>::forward_unchecked
; Function Attrs: inlinehint nonlazybind uwtable
define internal i64 @"_ZN49_$LT$usize$u20$as$u20$core..iter..range..Step$GT$17forward_unchecked17h09e6a3da3f18d5dbE"(i64 %start1, i64 %n) unnamed_addr #1 !dbg !1832 {
start:
  %n.dbg.spill = alloca [8 x i8], align 8
  %start.dbg.spill = alloca [8 x i8], align 8
  store i64 %start1, ptr %start.dbg.spill, align 8
    #dbg_declare(ptr %start.dbg.spill, !1834, !DIExpression(), !1836)
    #dbg_declare(ptr %start.dbg.spill, !1837, !DIExpression(), !1841)
  store i64 %n, ptr %n.dbg.spill, align 8
    #dbg_declare(ptr %n.dbg.spill, !1835, !DIExpression(), !1843)
    #dbg_declare(ptr %n.dbg.spill, !1840, !DIExpression(), !1844)
  br label %bb1, !dbg !1845

bb1:                                              ; preds = %start
; call core::num::<impl usize>::unchecked_add::precondition_check
  call void @"_ZN4core3num23_$LT$impl$u20$usize$GT$13unchecked_add18precondition_check17h33d9a267230b7c52E"(i64 %start1, i64 %n) #16, !dbg !1847
  br label %bb2, !dbg !1847

bb2:                                              ; preds = %bb1
  %_0 = add nuw i64 %start1, %n, !dbg !1848
  ret i64 %_0, !dbg !1849
}

; core::intrinsics::cold_path
; Function Attrs: cold nounwind nonlazybind uwtable
define internal void @_ZN4core10intrinsics9cold_path17h9be76dd76e29a980E() unnamed_addr #3 !dbg !1850 {
start:
  ret void, !dbg !1853
}

; core::cmp::impls::<impl core::cmp::Ord for usize>::cmp
; Function Attrs: inlinehint nonlazybind uwtable
define internal i8 @"_ZN4core3cmp5impls50_$LT$impl$u20$core..cmp..Ord$u20$for$u20$usize$GT$3cmp17h98dc132689b9a1a7E"(ptr align 8 %self, ptr align 8 %other) unnamed_addr #1 !dbg !1854 {
start:
  %other.dbg.spill = alloca [8 x i8], align 8
  %self.dbg.spill = alloca [8 x i8], align 8
  store ptr %self, ptr %self.dbg.spill, align 8
    #dbg_declare(ptr %self.dbg.spill, !1859, !DIExpression(), !1861)
  store ptr %other, ptr %other.dbg.spill, align 8
    #dbg_declare(ptr %other.dbg.spill, !1860, !DIExpression(), !1862)
  %_3 = load i64, ptr %self, align 8, !dbg !1863
  %_4 = load i64, ptr %other, align 8, !dbg !1864
  %0 = icmp ugt i64 %_3, %_4, !dbg !1865
  %1 = zext i1 %0 to i8, !dbg !1865
  %2 = icmp ult i64 %_3, %_4, !dbg !1865
  %3 = zext i1 %2 to i8, !dbg !1865
  %_0 = sub nsw i8 %1, %3, !dbg !1865
  ret i8 %_0, !dbg !1866
}

; core::cmp::max_by
; Function Attrs: inlinehint nonlazybind uwtable
define internal i64 @_ZN4core3cmp6max_by17h486909ddd5f25aa4E(i64 %0, i64 %1) unnamed_addr #1 personality ptr @rust_eh_personality !dbg !1867 {
start:
  %2 = alloca [16 x i8], align 8
  %compare.dbg.spill = alloca [0 x i8], align 1
  %_9 = alloca [1 x i8], align 1
  %_4 = alloca [1 x i8], align 1
  %_0 = alloca [8 x i8], align 8
  %v2 = alloca [8 x i8], align 8
  %v1 = alloca [8 x i8], align 8
  store i64 %0, ptr %v1, align 8
  store i64 %1, ptr %v2, align 8
    #dbg_declare(ptr %v1, !1872, !DIExpression(), !1877)
    #dbg_declare(ptr %v2, !1873, !DIExpression(), !1878)
    #dbg_declare(ptr %compare.dbg.spill, !1874, !DIExpression(), !1879)
  store i8 1, ptr %_9, align 1, !dbg !1880
; invoke core::ops::function::FnOnce::call_once
  %3 = invoke i8 @_ZN4core3ops8function6FnOnce9call_once17h88f68a3706b3f499E(ptr align 8 %v1, ptr align 8 %v2)
          to label %bb1 unwind label %cleanup, !dbg !1880

bb6:                                              ; preds = %cleanup
  br label %bb10, !dbg !1881

cleanup:                                          ; preds = %start
  %4 = landingpad { ptr, i32 }
          cleanup
  %5 = extractvalue { ptr, i32 } %4, 0
  %6 = extractvalue { ptr, i32 } %4, 1
  store ptr %5, ptr %2, align 8
  %7 = getelementptr inbounds i8, ptr %2, i64 8
  store i32 %6, ptr %7, align 8
  br label %bb6

bb1:                                              ; preds = %start
  store i8 %3, ptr %_4, align 1, !dbg !1880
  %_8 = load i8, ptr %_4, align 1, !dbg !1880
  switch i8 %_8, label %bb2 [
    i8 -1, label %bb4
    i8 0, label %bb4
    i8 1, label %bb3
  ], !dbg !1882

bb2:                                              ; preds = %bb1
  unreachable, !dbg !1880

bb4:                                              ; preds = %bb1, %bb1
  %8 = load i64, ptr %v2, align 8, !dbg !1883
  store i64 %8, ptr %_0, align 8, !dbg !1883
  %9 = load i8, ptr %_9, align 1, !dbg !1881
  %10 = trunc i8 %9 to i1, !dbg !1881
  br i1 %10, label %bb8, label %bb5, !dbg !1881

bb3:                                              ; preds = %bb1
  store i8 0, ptr %_9, align 1, !dbg !1884
  %11 = load i64, ptr %v1, align 8, !dbg !1884
  store i64 %11, ptr %_0, align 8, !dbg !1884
  br label %bb5, !dbg !1881

bb5:                                              ; preds = %bb3, %bb8, %bb4
  %12 = load i64, ptr %_0, align 8, !dbg !1885
  ret i64 %12, !dbg !1885

bb8:                                              ; preds = %bb4
  br label %bb5, !dbg !1881

bb10:                                             ; preds = %bb6
  %13 = load i8, ptr %_9, align 1, !dbg !1881
  %14 = trunc i8 %13 to i1, !dbg !1881
  br i1 %14, label %bb9, label %bb7, !dbg !1881

bb7:                                              ; preds = %bb9, %bb10
  %15 = load ptr, ptr %2, align 8, !dbg !1886
  %16 = getelementptr inbounds i8, ptr %2, i64 8, !dbg !1886
  %17 = load i32, ptr %16, align 8, !dbg !1886
  %18 = insertvalue { ptr, i32 } poison, ptr %15, 0, !dbg !1886
  %19 = insertvalue { ptr, i32 } %18, i32 %17, 1, !dbg !1886
  resume { ptr, i32 } %19, !dbg !1886

bb9:                                              ; preds = %bb10
  br label %bb7, !dbg !1881
}

; core::fmt::Arguments::new_v1
; Function Attrs: inlinehint nonlazybind uwtable
define internal void @_ZN4core3fmt9Arguments6new_v117h75348320e11e0accE(ptr sret([48 x i8]) align 8 %_0, ptr align 8 %pieces, ptr align 8 %args) unnamed_addr #1 !dbg !1887 {
start:
  %args.dbg.spill = alloca [8 x i8], align 8
  %pieces.dbg.spill = alloca [8 x i8], align 8
  store ptr %pieces, ptr %pieces.dbg.spill, align 8
    #dbg_declare(ptr %pieces.dbg.spill, !1898, !DIExpression(), !1900)
  store ptr %args, ptr %args.dbg.spill, align 8
    #dbg_declare(ptr %args.dbg.spill, !1899, !DIExpression(), !1901)
  store ptr %pieces, ptr %_0, align 8, !dbg !1902
  %0 = getelementptr inbounds i8, ptr %_0, i64 8, !dbg !1902
  store i64 3, ptr %0, align 8, !dbg !1902
  %1 = load ptr, ptr @0, align 8, !dbg !1902
  %2 = load i64, ptr getelementptr inbounds (i8, ptr @0, i64 8), align 8, !dbg !1902
  %3 = getelementptr inbounds i8, ptr %_0, i64 32, !dbg !1902
  store ptr %1, ptr %3, align 8, !dbg !1902
  %4 = getelementptr inbounds i8, ptr %3, i64 8, !dbg !1902
  store i64 %2, ptr %4, align 8, !dbg !1902
  %5 = getelementptr inbounds i8, ptr %_0, i64 16, !dbg !1902
  store ptr %args, ptr %5, align 8, !dbg !1902
  %6 = getelementptr inbounds i8, ptr %5, i64 8, !dbg !1902
  store i64 2, ptr %6, align 8, !dbg !1902
  ret void, !dbg !1903
}

; core::num::<impl u64>::from_str_radix
; Function Attrs: inlinehint nonlazybind uwtable
define internal void @"_ZN4core3num21_$LT$impl$u20$u64$GT$14from_str_radix17h5d87cad4156b8d6bE"(ptr sret([16 x i8]) align 8 %_0, ptr align 1 %src.0, i64 %src.1, i32 %radix) unnamed_addr #1 !dbg !1904 {
start:
  %x.dbg.spill22 = alloca [4 x i8], align 4
  %rest.dbg.spill20 = alloca [16 x i8], align 8
  %c.dbg.spill17 = alloca [8 x i8], align 8
  %value.dbg.spill15 = alloca [8 x i8], align 8
  %b.dbg.spill13 = alloca [1 x i8], align 1
  %self.dbg.spill12 = alloca [8 x i8], align 8
  %value.dbg.spill10 = alloca [8 x i8], align 8
  %x.dbg.spill = alloca [8 x i8], align 8
  %value.dbg.spill = alloca [4 x i8], align 4
  %b.dbg.spill = alloca [1 x i8], align 1
  %a.dbg.spill = alloca [8 x i8], align 8
  %rhs.dbg.spill = alloca [8 x i8], align 8
  %self.dbg.spill = alloca [8 x i8], align 8
  %rest.dbg.spill8 = alloca [16 x i8], align 8
  %c.dbg.spill = alloca [8 x i8], align 8
  %rest.dbg.spill5 = alloca [8 x i8], align 8
  %rest.dbg.spill = alloca [16 x i8], align 8
  %src.dbg.spill4 = alloca [16 x i8], align 8
  %is_signed_ty.dbg.spill3 = alloca [1 x i8], align 1
  %is_signed_ty.dbg.spill = alloca [1 x i8], align 1
  %radix.dbg.spill = alloca [4 x i8], align 4
  %src.dbg.spill = alloca [16 x i8], align 8
  %_80 = alloca [16 x i8], align 8
  %_79 = alloca [1 x i8], align 1
  %_68 = alloca [8 x i8], align 8
  %_67 = alloca [1 x i8], align 1
  %_49 = alloca [16 x i8], align 8
  %_42 = alloca [8 x i8], align 4
  %mul = alloca [16 x i8], align 8
  %_23 = alloca [8 x i8], align 4
  %digits2 = alloca [16 x i8], align 8
  %radix1 = alloca [4 x i8], align 4
  %_14 = alloca [1 x i8], align 1
  %result = alloca [8 x i8], align 8
  %rest = alloca [16 x i8], align 8
  %digits = alloca [16 x i8], align 8
  %is_positive = alloca [1 x i8], align 1
  store ptr %src.0, ptr %src.dbg.spill, align 8
  %0 = getelementptr inbounds i8, ptr %src.dbg.spill, i64 8
  store i64 %src.1, ptr %0, align 8
    #dbg_declare(ptr %src.dbg.spill, !1929, !DIExpression(), !2003)
    #dbg_declare(ptr %src.dbg.spill, !2004, !DIExpression(), !2012)
    #dbg_declare(ptr %src.dbg.spill, !2014, !DIExpression(), !2019)
    #dbg_declare(ptr %src.dbg.spill, !2021, !DIExpression(), !2026)
    #dbg_declare(ptr %src.dbg.spill, !2021, !DIExpression(), !2028)
  store i32 %radix, ptr %radix.dbg.spill, align 4
    #dbg_declare(ptr %radix.dbg.spill, !1930, !DIExpression(), !2030)
    #dbg_declare(ptr %is_positive, !1939, !DIExpression(), !2031)
    #dbg_declare(ptr %digits, !1941, !DIExpression(), !2032)
    #dbg_declare(ptr %rest, !1944, !DIExpression(), !2033)
    #dbg_declare(ptr %result, !1948, !DIExpression(), !2034)
    #dbg_declare(ptr %radix1, !2035, !DIExpression(), !2042)
    #dbg_declare(ptr %digits2, !2041, !DIExpression(), !2044)
    #dbg_declare(ptr %mul, !1968, !DIExpression(), !2045)
  store i8 0, ptr %is_signed_ty.dbg.spill, align 1, !dbg !2046
    #dbg_declare(ptr %is_signed_ty.dbg.spill, !1931, !DIExpression(), !2046)
  store i8 0, ptr %is_signed_ty.dbg.spill3, align 1, !dbg !2047
    #dbg_declare(ptr %is_signed_ty.dbg.spill3, !2040, !DIExpression(), !2047)
  %_3 = icmp ugt i32 2, %radix, !dbg !2048
  br i1 %_3, label %bb2, label %bb1, !dbg !2048

bb1:                                              ; preds = %start
  %_4 = icmp ugt i32 %radix, 36, !dbg !2049
  br i1 %_4, label %bb2, label %bb3, !dbg !2049

bb2:                                              ; preds = %bb1, %start
; call core::num::from_str_radix_panic
  call void @_ZN4core3num20from_str_radix_panic17hd2051f15a0940c03E(i32 %radix, ptr align 8 @alloc_565b5f4f7b4cd3b9729de2c1b4f45e8f) #17, !dbg !2050
  unreachable, !dbg !2050

bb3:                                              ; preds = %bb1
  store ptr %src.0, ptr %src.dbg.spill4, align 8, !dbg !2051
  %1 = getelementptr inbounds i8, ptr %src.dbg.spill4, i64 8, !dbg !2051
  store i64 %src.1, ptr %1, align 8, !dbg !2051
    #dbg_declare(ptr %src.dbg.spill4, !1933, !DIExpression(), !2052)
  %2 = icmp eq i64 %src.1, 0, !dbg !2053
  br i1 %2, label %bb4, label %bb5, !dbg !2053

bb4:                                              ; preds = %bb3
  %3 = getelementptr inbounds i8, ptr %_0, i64 1, !dbg !2054
  store i8 0, ptr %3, align 1, !dbg !2054
  store i8 1, ptr %_0, align 8, !dbg !2054
  br label %bb32, !dbg !2055

bb5:                                              ; preds = %bb3
  %4 = icmp eq i64 %src.1, 1, !dbg !2058
  br i1 %4, label %bb7, label %bb6, !dbg !2058

bb32:                                             ; preds = %bb31, %bb28, %bb4
  ret void, !dbg !2059

bb7:                                              ; preds = %bb5
  %5 = getelementptr inbounds [0 x i8], ptr %src.0, i64 0, i64 0, !dbg !2060
  %6 = load i8, ptr %5, align 1, !dbg !2060
  switch i8 %6, label %bb6 [
    i8 43, label %bb12
    i8 45, label %bb12
  ], !dbg !2060

bb6:                                              ; preds = %bb7, %bb5
  %_9 = icmp uge i64 %src.1, 1, !dbg !2061
  br i1 %_9, label %bb9, label %bb8, !dbg !2061

bb12:                                             ; preds = %bb7, %bb7
  %7 = getelementptr inbounds i8, ptr %_0, i64 1, !dbg !2062
  store i8 1, ptr %7, align 1, !dbg !2062
  store i8 1, ptr %_0, align 8, !dbg !2062
  br label %bb31, !dbg !2063

bb31:                                             ; preds = %bb30, %bb12
  br label %bb32, !dbg !2055

bb8:                                              ; preds = %bb10, %bb9, %bb6
  store i8 1, ptr %_79, align 1, !dbg !2065
  store ptr %src.0, ptr %_80, align 8, !dbg !2065
  %8 = getelementptr inbounds i8, ptr %_80, i64 8, !dbg !2065
  store i64 %src.1, ptr %8, align 8, !dbg !2065
  %9 = load i8, ptr %_79, align 1, !dbg !2066
  %10 = trunc i8 %9 to i1, !dbg !2066
  %11 = zext i1 %10 to i8, !dbg !2066
  store i8 %11, ptr %is_positive, align 1, !dbg !2066
  %12 = load ptr, ptr %_80, align 8, !dbg !2067
  %13 = getelementptr inbounds i8, ptr %_80, i64 8, !dbg !2067
  %14 = load i64, ptr %13, align 8, !dbg !2067
  store ptr %12, ptr %digits, align 8, !dbg !2067
  %15 = getelementptr inbounds i8, ptr %digits, i64 8, !dbg !2067
  store i64 %14, ptr %15, align 8, !dbg !2067
  store i64 0, ptr %result, align 8, !dbg !2068
  store i32 %radix, ptr %radix1, align 4, !dbg !2069
  %16 = load ptr, ptr %digits, align 8, !dbg !2070
  %17 = getelementptr inbounds i8, ptr %digits, i64 8, !dbg !2070
  %18 = load i64, ptr %17, align 8, !dbg !2070
  store ptr %16, ptr %digits2, align 8, !dbg !2070
  %19 = getelementptr inbounds i8, ptr %digits2, i64 8, !dbg !2070
  store i64 %18, ptr %19, align 8, !dbg !2070
  %20 = icmp ule i32 %radix, 16, !dbg !2071
  %21 = zext i1 %20 to i8, !dbg !2071
  store i8 %21, ptr %_67, align 1, !dbg !2071
  %22 = load i8, ptr %_67, align 1, !dbg !2071
  %23 = trunc i8 %22 to i1, !dbg !2071
  br i1 %23, label %bb41, label %bb45, !dbg !2071

bb9:                                              ; preds = %bb6
  %24 = getelementptr inbounds [0 x i8], ptr %src.0, i64 0, i64 0, !dbg !2060
  %25 = load i8, ptr %24, align 1, !dbg !2060
  switch i8 %25, label %bb8 [
    i8 43, label %bb11
    i8 45, label %bb10
  ], !dbg !2060

bb11:                                             ; preds = %bb9
  %rest.0 = getelementptr inbounds [0 x i8], ptr %src.0, i64 0, i64 1, !dbg !2072
  %rest.1 = sub i64 %src.1, 1, !dbg !2072
  store ptr %rest.0, ptr %rest.dbg.spill, align 8, !dbg !2072
  %26 = getelementptr inbounds i8, ptr %rest.dbg.spill, i64 8, !dbg !2072
  store i64 %rest.1, ptr %26, align 8, !dbg !2072
    #dbg_declare(ptr %rest.dbg.spill, !1942, !DIExpression(), !2073)
  store i8 1, ptr %_79, align 1, !dbg !2074
  store ptr %rest.0, ptr %_80, align 8, !dbg !2074
  %27 = getelementptr inbounds i8, ptr %_80, i64 8, !dbg !2074
  store i64 %rest.1, ptr %27, align 8, !dbg !2074
  %28 = load i8, ptr %_79, align 1, !dbg !2066
  %29 = trunc i8 %28 to i1, !dbg !2066
  %30 = zext i1 %29 to i8, !dbg !2066
  store i8 %30, ptr %is_positive, align 1, !dbg !2066
  %31 = load ptr, ptr %_80, align 8, !dbg !2067
  %32 = getelementptr inbounds i8, ptr %_80, i64 8, !dbg !2067
  %33 = load i64, ptr %32, align 8, !dbg !2067
  store ptr %31, ptr %digits, align 8, !dbg !2067
  %34 = getelementptr inbounds i8, ptr %digits, i64 8, !dbg !2067
  store i64 %33, ptr %34, align 8, !dbg !2067
  store i64 0, ptr %result, align 8, !dbg !2068
  store i32 %radix, ptr %radix1, align 4, !dbg !2069
  %35 = load ptr, ptr %digits, align 8, !dbg !2070
  %36 = getelementptr inbounds i8, ptr %digits, i64 8, !dbg !2070
  %37 = load i64, ptr %36, align 8, !dbg !2070
  store ptr %35, ptr %digits2, align 8, !dbg !2070
  %38 = getelementptr inbounds i8, ptr %digits2, i64 8, !dbg !2070
  store i64 %37, ptr %38, align 8, !dbg !2070
  %39 = icmp ule i32 %radix, 16, !dbg !2071
  %40 = zext i1 %39 to i8, !dbg !2071
  store i8 %40, ptr %_67, align 1, !dbg !2071
  %41 = load i8, ptr %_67, align 1, !dbg !2071
  %42 = trunc i8 %41 to i1, !dbg !2071
  br i1 %42, label %bb43, label %bb47, !dbg !2071

bb10:                                             ; preds = %bb9
  %43 = getelementptr inbounds [0 x i8], ptr %src.0, i64 0, i64 1, !dbg !2075
  %44 = sub i64 %src.1, 1, !dbg !2075
  store ptr %43, ptr %rest, align 8, !dbg !2075
  %45 = getelementptr inbounds i8, ptr %rest, i64 8, !dbg !2075
  store i64 %44, ptr %45, align 8, !dbg !2075
  store ptr %rest, ptr %rest.dbg.spill5, align 8, !dbg !2075
    #dbg_declare(ptr %rest.dbg.spill5, !1946, !DIExpression(), !2033)
  br label %bb8, !dbg !2076

bb47:                                             ; preds = %bb11
  store i8 0, ptr %_14, align 1, !dbg !2071
  %46 = load i8, ptr %_14, align 1, !dbg !2043
  %47 = trunc i8 %46 to i1, !dbg !2043
  br i1 %47, label %bb48, label %bb52, !dbg !2043

bb43:                                             ; preds = %bb11
  %48 = load ptr, ptr %digits2, align 8, !dbg !2077
  %49 = getelementptr inbounds i8, ptr %digits2, i64 8, !dbg !2077
  %50 = load i64, ptr %49, align 8, !dbg !2077
  store i64 %50, ptr %_68, align 8, !dbg !2077
  %51 = load i64, ptr %_68, align 8, !dbg !2077
  %52 = icmp ule i64 %51, 16, !dbg !2077
  %53 = zext i1 %52 to i8, !dbg !2077
  store i8 %53, ptr %_14, align 1, !dbg !2077
  %54 = load i8, ptr %_14, align 1, !dbg !2043
  %55 = trunc i8 %54 to i1, !dbg !2043
  br i1 %55, label %bb44, label %bb50, !dbg !2043

bb52:                                             ; preds = %bb47
  br label %bb19, !dbg !2078

bb48:                                             ; preds = %bb47
  unreachable

bb19:                                             ; preds = %bb27, %bb49, %bb51, %bb50, %bb52
  %56 = load ptr, ptr %digits, align 8, !dbg !2079
  %57 = getelementptr inbounds i8, ptr %digits, i64 8, !dbg !2079
  %_34 = load i64, ptr %57, align 8, !dbg !2079
  %_35 = icmp uge i64 %_34, 1, !dbg !2079
  br i1 %_35, label %bb20, label %bb28, !dbg !2079

bb50:                                             ; preds = %bb43
  br label %bb19, !dbg !2078

bb44:                                             ; preds = %bb43
  br label %bb13, !dbg !2080

bb13:                                             ; preds = %bb18, %bb42, %bb44
  %58 = load ptr, ptr %digits, align 8, !dbg !2081
  %59 = getelementptr inbounds i8, ptr %digits, i64 8, !dbg !2081
  %_17 = load i64, ptr %59, align 8, !dbg !2081
  %_18 = icmp uge i64 %_17, 1, !dbg !2081
  br i1 %_18, label %bb14, label %bb28, !dbg !2081

bb45:                                             ; preds = %bb8
  store i8 0, ptr %_14, align 1, !dbg !2071
  %60 = load i8, ptr %_14, align 1, !dbg !2043
  %61 = trunc i8 %60 to i1, !dbg !2043
  br i1 %61, label %bb46, label %bb51, !dbg !2043

bb41:                                             ; preds = %bb8
  %62 = load ptr, ptr %digits2, align 8, !dbg !2077
  %63 = getelementptr inbounds i8, ptr %digits2, i64 8, !dbg !2077
  %64 = load i64, ptr %63, align 8, !dbg !2077
  store i64 %64, ptr %_68, align 8, !dbg !2077
  %65 = load i64, ptr %_68, align 8, !dbg !2077
  %66 = icmp ule i64 %65, 16, !dbg !2077
  %67 = zext i1 %66 to i8, !dbg !2077
  store i8 %67, ptr %_14, align 1, !dbg !2077
  %68 = load i8, ptr %_14, align 1, !dbg !2043
  %69 = trunc i8 %68 to i1, !dbg !2043
  br i1 %69, label %bb42, label %bb49, !dbg !2043

bb51:                                             ; preds = %bb45
  br label %bb19, !dbg !2078

bb46:                                             ; preds = %bb45
  unreachable

bb49:                                             ; preds = %bb41
  br label %bb19, !dbg !2078

bb42:                                             ; preds = %bb41
  br label %bb13, !dbg !2080

bb28:                                             ; preds = %bb13, %bb19
  %_64 = load i64, ptr %result, align 8, !dbg !2082
  %70 = getelementptr inbounds i8, ptr %_0, i64 8, !dbg !2083
  store i64 %_64, ptr %70, align 8, !dbg !2083
  store i8 0, ptr %_0, align 8, !dbg !2083
  br label %bb32, !dbg !2059

bb20:                                             ; preds = %bb19
  %71 = load ptr, ptr %digits, align 8, !dbg !2084
  %72 = getelementptr inbounds i8, ptr %digits, i64 8, !dbg !2084
  %73 = load i64, ptr %72, align 8, !dbg !2084
  %c = getelementptr inbounds [0 x i8], ptr %71, i64 0, i64 0, !dbg !2084
  store ptr %c, ptr %c.dbg.spill, align 8, !dbg !2084
    #dbg_declare(ptr %c.dbg.spill, !1965, !DIExpression(), !2084)
  %74 = load ptr, ptr %digits, align 8, !dbg !2085
  %75 = getelementptr inbounds i8, ptr %digits, i64 8, !dbg !2085
  %76 = load i64, ptr %75, align 8, !dbg !2085
  %rest.06 = getelementptr inbounds [0 x i8], ptr %74, i64 0, i64 1, !dbg !2085
  %rest.17 = sub i64 %76, 1, !dbg !2085
  store ptr %rest.06, ptr %rest.dbg.spill8, align 8, !dbg !2085
  %77 = getelementptr inbounds i8, ptr %rest.dbg.spill8, i64 8, !dbg !2085
  store i64 %rest.17, ptr %77, align 8, !dbg !2085
    #dbg_declare(ptr %rest.dbg.spill8, !1967, !DIExpression(), !2085)
  %self = load i64, ptr %result, align 8, !dbg !2086
  store i64 %self, ptr %self.dbg.spill, align 8, !dbg !2086
    #dbg_declare(ptr %self.dbg.spill, !2087, !DIExpression(), !2100)
    #dbg_declare(ptr %self.dbg.spill, !2102, !DIExpression(), !2118)
  %rhs = zext i32 %radix to i64, !dbg !2120
  store i64 %rhs, ptr %rhs.dbg.spill, align 8, !dbg !2120
    #dbg_declare(ptr %rhs.dbg.spill, !2093, !DIExpression(), !2121)
    #dbg_declare(ptr %rhs.dbg.spill, !2111, !DIExpression(), !2122)
  %78 = call { i64, i1 } @llvm.umul.with.overflow.i64(i64 %self, i64 %rhs), !dbg !2123
  %_71.0 = extractvalue { i64, i1 } %78, 0, !dbg !2123
  %_71.1 = extractvalue { i64, i1 } %78, 1, !dbg !2123
  store i64 %_71.0, ptr %a.dbg.spill, align 8, !dbg !2124
    #dbg_declare(ptr %a.dbg.spill, !2094, !DIExpression(), !2125)
    #dbg_declare(ptr %a.dbg.spill, !2112, !DIExpression(), !2126)
  %79 = zext i1 %_71.1 to i8, !dbg !2127
  store i8 %79, ptr %b.dbg.spill, align 1, !dbg !2127
    #dbg_declare(ptr %b.dbg.spill, !2096, !DIExpression(), !2128)
    #dbg_declare(ptr %b.dbg.spill, !2114, !DIExpression(), !2129)
    #dbg_declare(ptr %b.dbg.spill, !2130, !DIExpression(), !2135)
  br i1 %_71.1, label %bb34, label %bb36, !dbg !2137

bb36:                                             ; preds = %bb20
  %80 = getelementptr inbounds i8, ptr %mul, i64 8, !dbg !2138
  store i64 %_71.0, ptr %80, align 8, !dbg !2138
  store i64 1, ptr %mul, align 8, !dbg !2138
  br label %bb33, !dbg !2139

bb34:                                             ; preds = %bb20
  %81 = load i64, ptr @0, align 8, !dbg !2140
  %82 = load i64, ptr getelementptr inbounds (i8, ptr @0, i64 8), align 8, !dbg !2140
  store i64 %81, ptr %mul, align 8, !dbg !2140
  %83 = getelementptr inbounds i8, ptr %mul, i64 8, !dbg !2140
  store i64 %82, ptr %83, align 8, !dbg !2140
  br label %bb33, !dbg !2139

bb33:                                             ; preds = %bb34, %bb36
  %_44 = load i8, ptr %c, align 1, !dbg !2141
  %_43 = zext i8 %_44 to i32, !dbg !2142
; call core::char::methods::<impl char>::to_digit
  %84 = call { i32, i32 } @"_ZN4core4char7methods22_$LT$impl$u20$char$GT$8to_digit17h685b3c1ad09375a2E"(i32 %_43, i32 %radix), !dbg !2142
  %85 = extractvalue { i32, i32 } %84, 0, !dbg !2142
  %86 = extractvalue { i32, i32 } %84, 1, !dbg !2142
  store i32 %85, ptr %_42, align 4, !dbg !2142
  %87 = getelementptr inbounds i8, ptr %_42, i64 4, !dbg !2142
  store i32 %86, ptr %87, align 4, !dbg !2142
  %88 = load i32, ptr %_42, align 4, !dbg !2142
  %_45 = zext i32 %88 to i64, !dbg !2142
  %89 = icmp eq i64 %_45, 0, !dbg !2143
  br i1 %89, label %bb22, label %bb23, !dbg !2143

bb22:                                             ; preds = %bb33
  %90 = getelementptr inbounds i8, ptr %_0, i64 1, !dbg !2144
  store i8 1, ptr %90, align 1, !dbg !2144
  store i8 1, ptr %_0, align 8, !dbg !2144
  br label %bb29, !dbg !2145

bb23:                                             ; preds = %bb33
  %91 = getelementptr inbounds i8, ptr %_42, i64 4, !dbg !2147
  %value = load i32, ptr %91, align 4, !dbg !2147
  store i32 %value, ptr %value.dbg.spill, align 4, !dbg !2147
    #dbg_declare(ptr %value.dbg.spill, !1984, !DIExpression(), !2148)
  %x = zext i32 %value to i64, !dbg !2149
  store i64 %x, ptr %x.dbg.spill, align 8, !dbg !2149
    #dbg_declare(ptr %x.dbg.spill, !1982, !DIExpression(), !2150)
    #dbg_declare(ptr %x.dbg.spill, !2151, !DIExpression(), !2155)
  %_47 = load i64, ptr %mul, align 8, !dbg !2157
  %92 = icmp eq i64 %_47, 0, !dbg !2158
  br i1 %92, label %bb24, label %bb25, !dbg !2158

bb29:                                             ; preds = %bb26, %bb24, %bb22
  br label %bb30, !dbg !2159

bb24:                                             ; preds = %bb23
  %93 = getelementptr inbounds i8, ptr %_0, i64 1, !dbg !2161
  store i8 2, ptr %93, align 1, !dbg !2161
  store i8 1, ptr %_0, align 8, !dbg !2161
  br label %bb29, !dbg !2162

bb25:                                             ; preds = %bb23
  %94 = getelementptr inbounds i8, ptr %mul, i64 8, !dbg !2164
  %value9 = load i64, ptr %94, align 8, !dbg !2164
  store i64 %value9, ptr %value.dbg.spill10, align 8, !dbg !2164
    #dbg_declare(ptr %value.dbg.spill10, !1986, !DIExpression(), !2165)
  store i64 %value9, ptr %result, align 8, !dbg !2166
  %self11 = load i64, ptr %result, align 8, !dbg !2167
  store i64 %self11, ptr %self.dbg.spill12, align 8, !dbg !2167
    #dbg_declare(ptr %self.dbg.spill12, !2154, !DIExpression(), !2168)
  %95 = call { i64, i1 } @llvm.uadd.with.overflow.i64(i64 %self11, i64 %x), !dbg !2169
  %_74.0 = extractvalue { i64, i1 } %95, 0, !dbg !2169
  %_74.1 = extractvalue { i64, i1 } %95, 1, !dbg !2169
  %96 = zext i1 %_74.1 to i8, !dbg !2169
  store i8 %96, ptr %b.dbg.spill13, align 1, !dbg !2169
    #dbg_declare(ptr %b.dbg.spill13, !2130, !DIExpression(), !2170)
  br i1 %_74.1, label %bb38, label %bb40, !dbg !2172

bb40:                                             ; preds = %bb25
  %_75 = add nuw i64 %self11, %x, !dbg !2173
  %97 = getelementptr inbounds i8, ptr %_49, i64 8, !dbg !2174
  store i64 %_75, ptr %97, align 8, !dbg !2174
  store i64 1, ptr %_49, align 8, !dbg !2174
  br label %bb37, !dbg !2175

bb38:                                             ; preds = %bb25
  %98 = load i64, ptr @0, align 8, !dbg !2176
  %99 = load i64, ptr getelementptr inbounds (i8, ptr @0, i64 8), align 8, !dbg !2176
  store i64 %98, ptr %_49, align 8, !dbg !2176
  %100 = getelementptr inbounds i8, ptr %_49, i64 8, !dbg !2176
  store i64 %99, ptr %100, align 8, !dbg !2176
  br label %bb37, !dbg !2175

bb37:                                             ; preds = %bb38, %bb40
  %_51 = load i64, ptr %_49, align 8, !dbg !2156
  %101 = icmp eq i64 %_51, 0, !dbg !2158
  br i1 %101, label %bb26, label %bb27, !dbg !2158

bb26:                                             ; preds = %bb37
  %102 = getelementptr inbounds i8, ptr %_0, i64 1, !dbg !2161
  store i8 2, ptr %102, align 1, !dbg !2161
  store i8 1, ptr %_0, align 8, !dbg !2161
  br label %bb29, !dbg !2162

bb27:                                             ; preds = %bb37
  %103 = getelementptr inbounds i8, ptr %_49, i64 8, !dbg !2164
  %value14 = load i64, ptr %103, align 8, !dbg !2164
  store i64 %value14, ptr %value.dbg.spill15, align 8, !dbg !2164
    #dbg_declare(ptr %value.dbg.spill15, !1988, !DIExpression(), !2177)
  store i64 %value14, ptr %result, align 8, !dbg !2178
  store ptr %rest.06, ptr %digits, align 8, !dbg !2179
  %104 = getelementptr inbounds i8, ptr %digits, i64 8, !dbg !2179
  store i64 %rest.17, ptr %104, align 8, !dbg !2179
  br label %bb19, !dbg !2180

bb30:                                             ; preds = %bb17, %bb29
  br label %bb31, !dbg !2063

bb14:                                             ; preds = %bb13
  %105 = load ptr, ptr %digits, align 8, !dbg !2181
  %106 = getelementptr inbounds i8, ptr %digits, i64 8, !dbg !2181
  %107 = load i64, ptr %106, align 8, !dbg !2181
  %c16 = getelementptr inbounds [0 x i8], ptr %105, i64 0, i64 0, !dbg !2181
  store ptr %c16, ptr %c.dbg.spill17, align 8, !dbg !2181
    #dbg_declare(ptr %c.dbg.spill17, !1950, !DIExpression(), !2181)
  %108 = load ptr, ptr %digits, align 8, !dbg !2182
  %109 = getelementptr inbounds i8, ptr %digits, i64 8, !dbg !2182
  %110 = load i64, ptr %109, align 8, !dbg !2182
  %rest.018 = getelementptr inbounds [0 x i8], ptr %108, i64 0, i64 1, !dbg !2182
  %rest.119 = sub i64 %110, 1, !dbg !2182
  store ptr %rest.018, ptr %rest.dbg.spill20, align 8, !dbg !2182
  %111 = getelementptr inbounds i8, ptr %rest.dbg.spill20, i64 8, !dbg !2182
  store i64 %rest.119, ptr %111, align 8, !dbg !2182
    #dbg_declare(ptr %rest.dbg.spill20, !1953, !DIExpression(), !2182)
  %_21 = load i64, ptr %result, align 8, !dbg !2183
  %_22 = zext i32 %radix to i64, !dbg !2184
  %112 = mul i64 %_21, %_22, !dbg !2185
  store i64 %112, ptr %result, align 8, !dbg !2185
  %_25 = load i8, ptr %c16, align 1, !dbg !2186
  %_24 = zext i8 %_25 to i32, !dbg !2187
; call core::char::methods::<impl char>::to_digit
  %113 = call { i32, i32 } @"_ZN4core4char7methods22_$LT$impl$u20$char$GT$8to_digit17h685b3c1ad09375a2E"(i32 %_24, i32 %radix), !dbg !2187
  %114 = extractvalue { i32, i32 } %113, 0, !dbg !2187
  %115 = extractvalue { i32, i32 } %113, 1, !dbg !2187
  store i32 %114, ptr %_23, align 4, !dbg !2187
  %116 = getelementptr inbounds i8, ptr %_23, i64 4, !dbg !2187
  store i32 %115, ptr %116, align 4, !dbg !2187
  %117 = load i32, ptr %_23, align 4, !dbg !2187
  %_26 = zext i32 %117 to i64, !dbg !2187
  %118 = icmp eq i64 %_26, 0, !dbg !2188
  br i1 %118, label %bb17, label %bb18, !dbg !2188

bb17:                                             ; preds = %bb14
  %119 = getelementptr inbounds i8, ptr %_0, i64 1, !dbg !2189
  store i8 1, ptr %119, align 1, !dbg !2189
  store i8 1, ptr %_0, align 8, !dbg !2189
  br label %bb30, !dbg !2159

bb18:                                             ; preds = %bb14
  %120 = getelementptr inbounds i8, ptr %_23, i64 4, !dbg !2190
  %x21 = load i32, ptr %120, align 4, !dbg !2190
  store i32 %x21, ptr %x.dbg.spill22, align 4, !dbg !2190
    #dbg_declare(ptr %x.dbg.spill22, !1954, !DIExpression(), !2191)
    #dbg_declare(ptr %x.dbg.spill22, !1956, !DIExpression(), !2192)
  %_28 = load i64, ptr %result, align 8, !dbg !2193
  %_29 = zext i32 %x21 to i64, !dbg !2194
  %121 = add i64 %_28, %_29, !dbg !2195
  store i64 %121, ptr %result, align 8, !dbg !2195
  store ptr %rest.018, ptr %digits, align 8, !dbg !2196
  %122 = getelementptr inbounds i8, ptr %digits, i64 8, !dbg !2196
  store i64 %rest.119, ptr %122, align 8, !dbg !2196
  br label %bb13, !dbg !2197

bb16:                                             ; No predecessors!
  unreachable, !dbg !2055
}

; core::num::<impl usize>::unchecked_add::precondition_check
; Function Attrs: inlinehint nounwind nonlazybind uwtable
define internal void @"_ZN4core3num23_$LT$impl$u20$usize$GT$13unchecked_add18precondition_check17h33d9a267230b7c52E"(i64 %lhs, i64 %rhs) unnamed_addr #4 !dbg !2198 {
start:
  %b.dbg.spill = alloca [1 x i8], align 1
  %a.dbg.spill = alloca [8 x i8], align 8
  %rhs.dbg.spill = alloca [8 x i8], align 8
  %lhs.dbg.spill = alloca [8 x i8], align 8
  store i64 %lhs, ptr %lhs.dbg.spill, align 8
    #dbg_declare(ptr %lhs.dbg.spill, !2203, !DIExpression(), !2205)
    #dbg_declare(ptr %lhs.dbg.spill, !2206, !DIExpression(), !2219)
  store i64 %rhs, ptr %rhs.dbg.spill, align 8
    #dbg_declare(ptr %rhs.dbg.spill, !2204, !DIExpression(), !2205)
    #dbg_declare(ptr %rhs.dbg.spill, !2215, !DIExpression(), !2222)
  %0 = call { i64, i1 } @llvm.uadd.with.overflow.i64(i64 %lhs, i64 %rhs), !dbg !2223
  %_6.0 = extractvalue { i64, i1 } %0, 0, !dbg !2223
  %_6.1 = extractvalue { i64, i1 } %0, 1, !dbg !2223
  store i64 %_6.0, ptr %a.dbg.spill, align 8, !dbg !2224
    #dbg_declare(ptr %a.dbg.spill, !2216, !DIExpression(), !2225)
  %1 = zext i1 %_6.1 to i8, !dbg !2226
  store i8 %1, ptr %b.dbg.spill, align 1, !dbg !2226
    #dbg_declare(ptr %b.dbg.spill, !2218, !DIExpression(), !2227)
  br i1 %_6.1, label %bb1, label %bb2, !dbg !2228

bb2:                                              ; preds = %start
  ret void, !dbg !2229

bb1:                                              ; preds = %start
; call core::panicking::panic_nounwind
  call void @_ZN4core9panicking14panic_nounwind17hfc854da59c4c7125E(ptr align 1 @alloc_289b84035b3220255b84b8869a538376, i64 69) #20, !dbg !2230
  unreachable, !dbg !2230
}

; core::num::<impl core::str::traits::FromStr for usize>::from_str
; Function Attrs: inlinehint nonlazybind uwtable
define internal void @"_ZN4core3num62_$LT$impl$u20$core..str..traits..FromStr$u20$for$u20$usize$GT$8from_str17h0631fca801abf9c3E"(ptr sret([16 x i8]) align 8 %_0, ptr align 1 %src.0, i64 %src.1) unnamed_addr #1 !dbg !2231 {
start:
  %e.dbg.spill = alloca [1 x i8], align 1
  %x.dbg.spill = alloca [8 x i8], align 8
  %radix.dbg.spill = alloca [4 x i8], align 4
  %src.dbg.spill = alloca [16 x i8], align 8
  %_2 = alloca [16 x i8], align 8
  store ptr %src.0, ptr %src.dbg.spill, align 8
  %0 = getelementptr inbounds i8, ptr %src.dbg.spill, i64 8
  store i64 %src.1, ptr %0, align 8
    #dbg_declare(ptr %src.dbg.spill, !2250, !DIExpression(), !2251)
    #dbg_declare(ptr %src.dbg.spill, !2252, !DIExpression(), !2263)
  store i32 10, ptr %radix.dbg.spill, align 4, !dbg !2265
    #dbg_declare(ptr %radix.dbg.spill, !2258, !DIExpression(), !2265)
; call core::num::<impl u64>::from_str_radix
  call void @"_ZN4core3num21_$LT$impl$u20$u64$GT$14from_str_radix17h5d87cad4156b8d6bE"(ptr sret([16 x i8]) align 8 %_2, ptr align 1 %src.0, i64 %src.1, i32 10), !dbg !2266
  %1 = load i8, ptr %_2, align 8, !dbg !2266
  %2 = trunc i8 %1 to i1, !dbg !2266
  %_3 = zext i1 %2 to i64, !dbg !2266
  %3 = icmp eq i64 %_3, 0, !dbg !2267
  br i1 %3, label %bb4, label %bb3, !dbg !2267

bb4:                                              ; preds = %start
  %4 = getelementptr inbounds i8, ptr %_2, i64 8, !dbg !2268
  %x = load i64, ptr %4, align 8, !dbg !2268
  store i64 %x, ptr %x.dbg.spill, align 8, !dbg !2268
    #dbg_declare(ptr %x.dbg.spill, !2259, !DIExpression(), !2269)
  %5 = getelementptr inbounds i8, ptr %_0, i64 8, !dbg !2270
  store i64 %x, ptr %5, align 8, !dbg !2270
  store i8 0, ptr %_0, align 8, !dbg !2270
  br label %bb5, !dbg !2271

bb3:                                              ; preds = %start
  %6 = getelementptr inbounds i8, ptr %_2, i64 1, !dbg !2272
  %e = load i8, ptr %6, align 1, !dbg !2272
  store i8 %e, ptr %e.dbg.spill, align 1, !dbg !2272
    #dbg_declare(ptr %e.dbg.spill, !2261, !DIExpression(), !2273)
  %7 = getelementptr inbounds i8, ptr %_0, i64 1, !dbg !2274
  store i8 %e, ptr %7, align 1, !dbg !2274
  store i8 1, ptr %_0, align 8, !dbg !2274
  br label %bb5, !dbg !2275

bb5:                                              ; preds = %bb3, %bb4
  ret void, !dbg !2276

bb2:                                              ; No predecessors!
  unreachable, !dbg !2266
}

; core::ops::range::RangeInclusive<Idx>::new
; Function Attrs: inlinehint nonlazybind uwtable
define internal void @"_ZN4core3ops5range25RangeInclusive$LT$Idx$GT$3new17heab0fc858e7cac60E"(ptr sret([24 x i8]) align 8 %_0, i64 %start1, i64 %end) unnamed_addr #1 !dbg !2277 {
start:
  %end.dbg.spill = alloca [8 x i8], align 8
  %start.dbg.spill = alloca [8 x i8], align 8
  store i64 %start1, ptr %start.dbg.spill, align 8
    #dbg_declare(ptr %start.dbg.spill, !2282, !DIExpression(), !2284)
  store i64 %end, ptr %end.dbg.spill, align 8
    #dbg_declare(ptr %end.dbg.spill, !2283, !DIExpression(), !2285)
  store i64 %start1, ptr %_0, align 8, !dbg !2286
  %0 = getelementptr inbounds i8, ptr %_0, i64 8, !dbg !2286
  store i64 %end, ptr %0, align 8, !dbg !2286
  %1 = getelementptr inbounds i8, ptr %_0, i64 16, !dbg !2286
  store i8 0, ptr %1, align 8, !dbg !2286
  ret void, !dbg !2287
}

; core::ops::function::FnOnce::call_once{{vtable.shim}}
; Function Attrs: inlinehint nonlazybind uwtable
define internal i32 @"_ZN4core3ops8function6FnOnce40call_once$u7b$$u7b$vtable.shim$u7d$$u7d$17hf15ef0b6cb54f630E"(ptr %_1) unnamed_addr #1 !dbg !2288 {
start:
  %_1.dbg.spill = alloca [8 x i8], align 8
  %_2 = alloca [0 x i8], align 1
  store ptr %_1, ptr %_1.dbg.spill, align 8
    #dbg_declare(ptr %_1.dbg.spill, !2296, !DIExpression(), !2301)
    #dbg_declare(ptr %_2, !2297, !DIExpression(), !2301)
  %0 = load ptr, ptr %_1, align 8, !dbg !2301
; call core::ops::function::FnOnce::call_once
  %_0 = call i32 @_ZN4core3ops8function6FnOnce9call_once17heca78fd7beb6bfffE(ptr %0), !dbg !2301
  ret i32 %_0, !dbg !2301
}

; core::ops::function::FnOnce::call_once
; Function Attrs: inlinehint nonlazybind uwtable
define internal i8 @_ZN4core3ops8function6FnOnce9call_once17h88f68a3706b3f499E(ptr align 8 %0, ptr align 8 %1) unnamed_addr #1 !dbg !2302 {
start:
  %_1.dbg.spill = alloca [0 x i8], align 1
  %_2 = alloca [16 x i8], align 8
  store ptr %0, ptr %_2, align 8
  %2 = getelementptr inbounds i8, ptr %_2, i64 8
  store ptr %1, ptr %2, align 8
    #dbg_declare(ptr %_1.dbg.spill, !2306, !DIExpression(), !2315)
    #dbg_declare(ptr %_2, !2307, !DIExpression(), !2315)
  %3 = load ptr, ptr %_2, align 8, !dbg !2315
  %4 = getelementptr inbounds i8, ptr %_2, i64 8, !dbg !2315
  %5 = load ptr, ptr %4, align 8, !dbg !2315
; call core::cmp::impls::<impl core::cmp::Ord for usize>::cmp
  %_0 = call i8 @"_ZN4core3cmp5impls50_$LT$impl$u20$core..cmp..Ord$u20$for$u20$usize$GT$3cmp17h98dc132689b9a1a7E"(ptr align 8 %3, ptr align 8 %5), !dbg !2315
  ret i8 %_0, !dbg !2315
}

; core::ops::function::FnOnce::call_once
; Function Attrs: inlinehint nonlazybind uwtable
define internal void @_ZN4core3ops8function6FnOnce9call_once17haefcb179a1939253E(ptr %_1) unnamed_addr #1 !dbg !2316 {
start:
  %_1.dbg.spill = alloca [8 x i8], align 8
  %_2 = alloca [0 x i8], align 1
  store ptr %_1, ptr %_1.dbg.spill, align 8
    #dbg_declare(ptr %_1.dbg.spill, !2318, !DIExpression(), !2322)
    #dbg_declare(ptr %_2, !2319, !DIExpression(), !2322)
  call void %_1(), !dbg !2322
  ret void, !dbg !2322
}

; core::ops::function::FnOnce::call_once
; Function Attrs: inlinehint nonlazybind uwtable
define internal i32 @_ZN4core3ops8function6FnOnce9call_once17heca78fd7beb6bfffE(ptr %0) unnamed_addr #1 personality ptr @rust_eh_personality !dbg !2323 {
start:
  %1 = alloca [16 x i8], align 8
  %_2 = alloca [0 x i8], align 1
  %_1 = alloca [8 x i8], align 8
  store ptr %0, ptr %_1, align 8
    #dbg_declare(ptr %_1, !2327, !DIExpression(), !2329)
    #dbg_declare(ptr %_2, !2328, !DIExpression(), !2329)
; invoke std::rt::lang_start::{{closure}}
  %_0 = invoke i32 @"_ZN3std2rt10lang_start28_$u7b$$u7b$closure$u7d$$u7d$17h317b6f8001531df8E"(ptr align 8 %_1)
          to label %bb1 unwind label %cleanup, !dbg !2329

bb3:                                              ; preds = %cleanup
  %2 = load ptr, ptr %1, align 8, !dbg !2329
  %3 = getelementptr inbounds i8, ptr %1, i64 8, !dbg !2329
  %4 = load i32, ptr %3, align 8, !dbg !2329
  %5 = insertvalue { ptr, i32 } poison, ptr %2, 0, !dbg !2329
  %6 = insertvalue { ptr, i32 } %5, i32 %4, 1, !dbg !2329
  resume { ptr, i32 } %6, !dbg !2329

cleanup:                                          ; preds = %start
  %7 = landingpad { ptr, i32 }
          cleanup
  %8 = extractvalue { ptr, i32 } %7, 0
  %9 = extractvalue { ptr, i32 } %7, 1
  store ptr %8, ptr %1, align 8
  %10 = getelementptr inbounds i8, ptr %1, i64 8
  store i32 %9, ptr %10, align 8
  br label %bb3

bb1:                                              ; preds = %start
  ret i32 %_0, !dbg !2329
}

; core::ptr::drop_in_place<<alloc::vec::into_iter::IntoIter<T,A> as core::ops::drop::Drop>::drop::DropGuard<std::ffi::os_str::OsString,alloc::alloc::Global>>
; Function Attrs: nonlazybind uwtable
define internal void @"_ZN4core3ptr180drop_in_place$LT$$LT$alloc..vec..into_iter..IntoIter$LT$T$C$A$GT$$u20$as$u20$core..ops..drop..Drop$GT$..drop..DropGuard$LT$std..ffi..os_str..OsString$C$alloc..alloc..Global$GT$$GT$17h3b66f52ff8dae6cbE"(ptr align 8 %_1) unnamed_addr #0 !dbg !2330 {
start:
  %_1.dbg.spill = alloca [8 x i8], align 8
  store ptr %_1, ptr %_1.dbg.spill, align 8
    #dbg_declare(ptr %_1.dbg.spill, !2335, !DIExpression(), !2338)
; call <<alloc::vec::into_iter::IntoIter<T,A> as core::ops::drop::Drop>::drop::DropGuard<T,A> as core::ops::drop::Drop>::drop
  call void @"_ZN157_$LT$$LT$alloc..vec..into_iter..IntoIter$LT$T$C$A$GT$$u20$as$u20$core..ops..drop..Drop$GT$..drop..DropGuard$LT$T$C$A$GT$$u20$as$u20$core..ops..drop..Drop$GT$4drop17h6e927153a781dd1dE"(ptr align 8 %_1), !dbg !2338
  ret void, !dbg !2338
}

; core::ptr::drop_in_place<alloc::vec::Vec<i32>::extend_trusted<core::iter::adapters::map::Map<core::ops::range::Range<usize>,array_sum::main::{{closure}}>>::{{closure}}>
; Function Attrs: nonlazybind uwtable
define internal void @"_ZN4core3ptr221drop_in_place$LT$alloc..vec..Vec$LT$i32$GT$..extend_trusted$LT$core..iter..adapters..map..Map$LT$core..ops..range..Range$LT$usize$GT$$C$array_sum..main..$u7b$$u7b$closure$u7d$$u7d$$GT$$GT$..$u7b$$u7b$closure$u7d$$u7d$$GT$17h6accc708a708cacaE"(ptr align 8 %_1) unnamed_addr #0 !dbg !2339 {
start:
  %_1.dbg.spill = alloca [8 x i8], align 8
  store ptr %_1, ptr %_1.dbg.spill, align 8
    #dbg_declare(ptr %_1.dbg.spill, !2344, !DIExpression(), !2347)
; call core::ptr::drop_in_place<alloc::vec::set_len_on_drop::SetLenOnDrop>
  call void @"_ZN4core3ptr62drop_in_place$LT$alloc..vec..set_len_on_drop..SetLenOnDrop$GT$17h0aec91d79680e801E"(ptr align 8 %_1), !dbg !2347
  ret void, !dbg !2347
}

; core::ptr::drop_in_place<&usize>
; Function Attrs: inlinehint nonlazybind uwtable
define internal void @"_ZN4core3ptr30drop_in_place$LT$$RF$usize$GT$17h16e34be5a350bffaE"(ptr align 8 %_1) unnamed_addr #1 !dbg !2348 {
start:
  %_1.dbg.spill = alloca [8 x i8], align 8
  store ptr %_1, ptr %_1.dbg.spill, align 8
    #dbg_declare(ptr %_1.dbg.spill, !2353, !DIExpression(), !2356)
  ret void, !dbg !2356
}

; core::ptr::drop_in_place<core::iter::traits::iterator::Iterator::for_each::call<i32,alloc::vec::Vec<i32>::extend_trusted<core::iter::adapters::map::Map<core::ops::range::Range<usize>,array_sum::main::{{closure}}>>::{{closure}}>::{{closure}}>
; Function Attrs: nonlazybind uwtable
define internal void @"_ZN4core3ptr318drop_in_place$LT$core..iter..traits..iterator..Iterator..for_each..call$LT$i32$C$alloc..vec..Vec$LT$i32$GT$..extend_trusted$LT$core..iter..adapters..map..Map$LT$core..ops..range..Range$LT$usize$GT$$C$array_sum..main..$u7b$$u7b$closure$u7d$$u7d$$GT$$GT$..$u7b$$u7b$closure$u7d$$u7d$$GT$..$u7b$$u7b$closure$u7d$$u7d$$GT$17hb6c1ab59b2db7d07E"(ptr align 8 %_1) unnamed_addr #0 !dbg !2357 {
start:
  %_1.dbg.spill = alloca [8 x i8], align 8
  store ptr %_1, ptr %_1.dbg.spill, align 8
    #dbg_declare(ptr %_1.dbg.spill, !2362, !DIExpression(), !2365)
; call core::ptr::drop_in_place<alloc::vec::Vec<i32>::extend_trusted<core::iter::adapters::map::Map<core::ops::range::Range<usize>,array_sum::main::{{closure}}>>::{{closure}}>
  call void @"_ZN4core3ptr221drop_in_place$LT$alloc..vec..Vec$LT$i32$GT$..extend_trusted$LT$core..iter..adapters..map..Map$LT$core..ops..range..Range$LT$usize$GT$$C$array_sum..main..$u7b$$u7b$closure$u7d$$u7d$$GT$$GT$..$u7b$$u7b$closure$u7d$$u7d$$GT$17h6accc708a708cacaE"(ptr align 8 %_1), !dbg !2365
  ret void, !dbg !2365
}

; core::ptr::drop_in_place<std::env::Args>
; Function Attrs: nonlazybind uwtable
define internal void @"_ZN4core3ptr35drop_in_place$LT$std..env..Args$GT$17hdc103e0386094e72E"(ptr align 8 %_1) unnamed_addr #0 !dbg !2366 {
start:
  %_1.dbg.spill = alloca [8 x i8], align 8
  store ptr %_1, ptr %_1.dbg.spill, align 8
    #dbg_declare(ptr %_1.dbg.spill, !2371, !DIExpression(), !2374)
; call core::ptr::drop_in_place<std::env::ArgsOs>
  call void @"_ZN4core3ptr37drop_in_place$LT$std..env..ArgsOs$GT$17h571faf045a0ab250E"(ptr align 8 %_1), !dbg !2374
  ret void, !dbg !2374
}

; core::ptr::drop_in_place<std::env::ArgsOs>
; Function Attrs: nonlazybind uwtable
define internal void @"_ZN4core3ptr37drop_in_place$LT$std..env..ArgsOs$GT$17h571faf045a0ab250E"(ptr align 8 %_1) unnamed_addr #0 !dbg !2375 {
start:
  %_1.dbg.spill = alloca [8 x i8], align 8
  store ptr %_1, ptr %_1.dbg.spill, align 8
    #dbg_declare(ptr %_1.dbg.spill, !2380, !DIExpression(), !2383)
; call core::ptr::drop_in_place<std::sys::pal::unix::args::Args>
  call void @"_ZN4core3ptr52drop_in_place$LT$std..sys..pal..unix..args..Args$GT$17h4b7c6c3e23d84d39E"(ptr align 8 %_1), !dbg !2383
  ret void, !dbg !2383
}

; core::ptr::drop_in_place<alloc::string::String>
; Function Attrs: nonlazybind uwtable
define internal void @"_ZN4core3ptr42drop_in_place$LT$alloc..string..String$GT$17hc9872b1fb13f053eE"(ptr align 8 %_1) unnamed_addr #0 !dbg !2384 {
start:
  %_1.dbg.spill = alloca [8 x i8], align 8
  store ptr %_1, ptr %_1.dbg.spill, align 8
    #dbg_declare(ptr %_1.dbg.spill, !2388, !DIExpression(), !2389)
; call core::ptr::drop_in_place<alloc::vec::Vec<u8>>
  call void @"_ZN4core3ptr46drop_in_place$LT$alloc..vec..Vec$LT$u8$GT$$GT$17hacf11c8490a1ef4cE"(ptr align 8 %_1), !dbg !2389
  ret void, !dbg !2389
}

; core::ptr::drop_in_place<core::iter::adapters::map::map_fold<usize,i32,(),array_sum::main::{{closure}},core::iter::traits::iterator::Iterator::for_each::call<i32,alloc::vec::Vec<i32>::extend_trusted<core::iter::adapters::map::Map<core::ops::range::Range<usize>,array_sum::main::{{closure}}>>::{{closure}}>::{{closure}}>::{{closure}}>
; Function Attrs: nonlazybind uwtable
define internal void @"_ZN4core3ptr462drop_in_place$LT$core..iter..adapters..map..map_fold$LT$usize$C$i32$C$$LP$$RP$$C$array_sum..main..$u7b$$u7b$closure$u7d$$u7d$$C$core..iter..traits..iterator..Iterator..for_each..call$LT$i32$C$alloc..vec..Vec$LT$i32$GT$..extend_trusted$LT$core..iter..adapters..map..Map$LT$core..ops..range..Range$LT$usize$GT$$C$array_sum..main..$u7b$$u7b$closure$u7d$$u7d$$GT$$GT$..$u7b$$u7b$closure$u7d$$u7d$$GT$..$u7b$$u7b$closure$u7d$$u7d$$GT$..$u7b$$u7b$closure$u7d$$u7d$$GT$17hc8f540e8c148666fE"(ptr align 8 %_1) unnamed_addr #0 !dbg !2390 {
start:
  %_1.dbg.spill = alloca [8 x i8], align 8
  store ptr %_1, ptr %_1.dbg.spill, align 8
    #dbg_declare(ptr %_1.dbg.spill, !2395, !DIExpression(), !2398)
; call core::ptr::drop_in_place<core::iter::traits::iterator::Iterator::for_each::call<i32,alloc::vec::Vec<i32>::extend_trusted<core::iter::adapters::map::Map<core::ops::range::Range<usize>,array_sum::main::{{closure}}>>::{{closure}}>::{{closure}}>
  call void @"_ZN4core3ptr318drop_in_place$LT$core..iter..traits..iterator..Iterator..for_each..call$LT$i32$C$alloc..vec..Vec$LT$i32$GT$..extend_trusted$LT$core..iter..adapters..map..Map$LT$core..ops..range..Range$LT$usize$GT$$C$array_sum..main..$u7b$$u7b$closure$u7d$$u7d$$GT$$GT$..$u7b$$u7b$closure$u7d$$u7d$$GT$..$u7b$$u7b$closure$u7d$$u7d$$GT$17hb6c1ab59b2db7d07E"(ptr align 8 %_1), !dbg !2398
  ret void, !dbg !2398
}

; core::ptr::drop_in_place<alloc::vec::Vec<u8>>
; Function Attrs: nonlazybind uwtable
define internal void @"_ZN4core3ptr46drop_in_place$LT$alloc..vec..Vec$LT$u8$GT$$GT$17hacf11c8490a1ef4cE"(ptr align 8 %_1) unnamed_addr #0 personality ptr @rust_eh_personality !dbg !2399 {
start:
  %0 = alloca [16 x i8], align 8
  %_1.dbg.spill = alloca [8 x i8], align 8
  store ptr %_1, ptr %_1.dbg.spill, align 8
    #dbg_declare(ptr %_1.dbg.spill, !2404, !DIExpression(), !2407)
; invoke <alloc::vec::Vec<T,A> as core::ops::drop::Drop>::drop
  invoke void @"_ZN70_$LT$alloc..vec..Vec$LT$T$C$A$GT$$u20$as$u20$core..ops..drop..Drop$GT$4drop17hb444ca6e2497c340E"(ptr align 8 %_1)
          to label %bb4 unwind label %cleanup, !dbg !2407

bb3:                                              ; preds = %cleanup
; invoke core::ptr::drop_in_place<alloc::raw_vec::RawVec<u8>>
  invoke void @"_ZN4core3ptr53drop_in_place$LT$alloc..raw_vec..RawVec$LT$u8$GT$$GT$17h860339eaa79c8b25E"(ptr align 8 %_1) #18
          to label %bb1 unwind label %terminate, !dbg !2407

cleanup:                                          ; preds = %start
  %1 = landingpad { ptr, i32 }
          cleanup
  %2 = extractvalue { ptr, i32 } %1, 0
  %3 = extractvalue { ptr, i32 } %1, 1
  store ptr %2, ptr %0, align 8
  %4 = getelementptr inbounds i8, ptr %0, i64 8
  store i32 %3, ptr %4, align 8
  br label %bb3

bb4:                                              ; preds = %start
; call core::ptr::drop_in_place<alloc::raw_vec::RawVec<u8>>
  call void @"_ZN4core3ptr53drop_in_place$LT$alloc..raw_vec..RawVec$LT$u8$GT$$GT$17h860339eaa79c8b25E"(ptr align 8 %_1), !dbg !2407
  ret void, !dbg !2407

terminate:                                        ; preds = %bb3
  %5 = landingpad { ptr, i32 }
          filter [0 x ptr] zeroinitializer
  %6 = extractvalue { ptr, i32 } %5, 0
  %7 = extractvalue { ptr, i32 } %5, 1
; call core::panicking::panic_in_cleanup
  call void @_ZN4core9panicking16panic_in_cleanup17h219356accc837b92E() #19, !dbg !2407
  unreachable, !dbg !2407

bb1:                                              ; preds = %bb3
  %8 = load ptr, ptr %0, align 8, !dbg !2407
  %9 = getelementptr inbounds i8, ptr %0, i64 8, !dbg !2407
  %10 = load i32, ptr %9, align 8, !dbg !2407
  %11 = insertvalue { ptr, i32 } poison, ptr %8, 0, !dbg !2407
  %12 = insertvalue { ptr, i32 } %11, i32 %10, 1, !dbg !2407
  resume { ptr, i32 } %12, !dbg !2407
}

; core::ptr::drop_in_place<alloc::vec::Vec<i32>>
; Function Attrs: nonlazybind uwtable
define internal void @"_ZN4core3ptr47drop_in_place$LT$alloc..vec..Vec$LT$i32$GT$$GT$17hc4a68b7956da7e79E"(ptr align 8 %_1) unnamed_addr #0 personality ptr @rust_eh_personality !dbg !2408 {
start:
  %0 = alloca [16 x i8], align 8
  %_1.dbg.spill = alloca [8 x i8], align 8
  store ptr %_1, ptr %_1.dbg.spill, align 8
    #dbg_declare(ptr %_1.dbg.spill, !2413, !DIExpression(), !2416)
; invoke <alloc::vec::Vec<T,A> as core::ops::drop::Drop>::drop
  invoke void @"_ZN70_$LT$alloc..vec..Vec$LT$T$C$A$GT$$u20$as$u20$core..ops..drop..Drop$GT$4drop17h24149754e797d889E"(ptr align 8 %_1)
          to label %bb4 unwind label %cleanup, !dbg !2416

bb3:                                              ; preds = %cleanup
; invoke core::ptr::drop_in_place<alloc::raw_vec::RawVec<i32>>
  invoke void @"_ZN4core3ptr54drop_in_place$LT$alloc..raw_vec..RawVec$LT$i32$GT$$GT$17h78681c9be9dc6756E"(ptr align 8 %_1) #18
          to label %bb1 unwind label %terminate, !dbg !2416

cleanup:                                          ; preds = %start
  %1 = landingpad { ptr, i32 }
          cleanup
  %2 = extractvalue { ptr, i32 } %1, 0
  %3 = extractvalue { ptr, i32 } %1, 1
  store ptr %2, ptr %0, align 8
  %4 = getelementptr inbounds i8, ptr %0, i64 8
  store i32 %3, ptr %4, align 8
  br label %bb3

bb4:                                              ; preds = %start
; call core::ptr::drop_in_place<alloc::raw_vec::RawVec<i32>>
  call void @"_ZN4core3ptr54drop_in_place$LT$alloc..raw_vec..RawVec$LT$i32$GT$$GT$17h78681c9be9dc6756E"(ptr align 8 %_1), !dbg !2416
  ret void, !dbg !2416

terminate:                                        ; preds = %bb3
  %5 = landingpad { ptr, i32 }
          filter [0 x ptr] zeroinitializer
  %6 = extractvalue { ptr, i32 } %5, 0
  %7 = extractvalue { ptr, i32 } %5, 1
; call core::panicking::panic_in_cleanup
  call void @_ZN4core9panicking16panic_in_cleanup17h219356accc837b92E() #19, !dbg !2416
  unreachable, !dbg !2416

bb1:                                              ; preds = %bb3
  %8 = load ptr, ptr %0, align 8, !dbg !2416
  %9 = getelementptr inbounds i8, ptr %0, i64 8, !dbg !2416
  %10 = load i32, ptr %9, align 8, !dbg !2416
  %11 = insertvalue { ptr, i32 } poison, ptr %8, 0, !dbg !2416
  %12 = insertvalue { ptr, i32 } %11, i32 %10, 1, !dbg !2416
  resume { ptr, i32 } %12, !dbg !2416
}

; core::ptr::drop_in_place<std::ffi::os_str::OsString>
; Function Attrs: nonlazybind uwtable
define internal void @"_ZN4core3ptr47drop_in_place$LT$std..ffi..os_str..OsString$GT$17h0bfc5b382181a693E"(ptr align 8 %_1) unnamed_addr #0 !dbg !2417 {
start:
  %_1.dbg.spill = alloca [8 x i8], align 8
  store ptr %_1, ptr %_1.dbg.spill, align 8
    #dbg_declare(ptr %_1.dbg.spill, !2421, !DIExpression(), !2422)
; call core::ptr::drop_in_place<std::sys::os_str::bytes::Buf>
  call void @"_ZN4core3ptr49drop_in_place$LT$std..sys..os_str..bytes..Buf$GT$17hf527fd911a71bb98E"(ptr align 8 %_1), !dbg !2422
  ret void, !dbg !2422
}

; core::ptr::drop_in_place<std::sys::os_str::bytes::Buf>
; Function Attrs: nonlazybind uwtable
define internal void @"_ZN4core3ptr49drop_in_place$LT$std..sys..os_str..bytes..Buf$GT$17hf527fd911a71bb98E"(ptr align 8 %_1) unnamed_addr #0 !dbg !2423 {
start:
  %_1.dbg.spill = alloca [8 x i8], align 8
  store ptr %_1, ptr %_1.dbg.spill, align 8
    #dbg_declare(ptr %_1.dbg.spill, !2428, !DIExpression(), !2431)
; call core::ptr::drop_in_place<alloc::vec::Vec<u8>>
  call void @"_ZN4core3ptr46drop_in_place$LT$alloc..vec..Vec$LT$u8$GT$$GT$17hacf11c8490a1ef4cE"(ptr align 8 %_1), !dbg !2431
  ret void, !dbg !2431
}

; core::ptr::drop_in_place<rand::rngs::thread::ThreadRng>
; Function Attrs: nonlazybind uwtable
define internal void @"_ZN4core3ptr50drop_in_place$LT$rand..rngs..thread..ThreadRng$GT$17hafcdc16ae4b06e2cE"(ptr align 8 %_1) unnamed_addr #0 !dbg !2432 {
start:
  %_1.dbg.spill = alloca [8 x i8], align 8
  store ptr %_1, ptr %_1.dbg.spill, align 8
    #dbg_declare(ptr %_1.dbg.spill, !2437, !DIExpression(), !2440)
; call core::ptr::drop_in_place<alloc::rc::Rc<core::cell::UnsafeCell<rand::rngs::adapter::reseeding::ReseedingRng<rand_chacha::chacha::ChaCha12Core,rand_core::os::OsRng>>>>
  call void @"_ZN4core3ptr180drop_in_place$LT$alloc..rc..Rc$LT$core..cell..UnsafeCell$LT$rand..rngs..adapter..reseeding..ReseedingRng$LT$rand_chacha..chacha..ChaCha12Core$C$rand_core..os..OsRng$GT$$GT$$GT$$GT$17h09fa02100628e688E"(ptr align 8 %_1), !dbg !2440
  ret void, !dbg !2440
}

; core::ptr::drop_in_place<[alloc::string::String]>
; Function Attrs: nonlazybind uwtable
define internal void @"_ZN4core3ptr52drop_in_place$LT$$u5b$alloc..string..String$u5d$$GT$17h1eae5469f78b20a2E"(ptr align 8 %_1.0, i64 %_1.1) unnamed_addr #0 personality ptr @rust_eh_personality !dbg !2441 {
start:
  %0 = alloca [16 x i8], align 8
  %_1.dbg.spill = alloca [16 x i8], align 8
  %_3 = alloca [8 x i8], align 8
  store ptr %_1.0, ptr %_1.dbg.spill, align 8
  %1 = getelementptr inbounds i8, ptr %_1.dbg.spill, i64 8
  store i64 %_1.1, ptr %1, align 8
    #dbg_declare(ptr %_1.dbg.spill, !2450, !DIExpression(), !2451)
  store i64 0, ptr %_3, align 8, !dbg !2451
  br label %bb6, !dbg !2451

bb6:                                              ; preds = %bb5, %start
  %2 = load i64, ptr %_3, align 8, !dbg !2451
  %_7 = icmp eq i64 %2, %_1.1, !dbg !2451
  br i1 %_7, label %bb1, label %bb5, !dbg !2451

bb5:                                              ; preds = %bb6
  %3 = load i64, ptr %_3, align 8, !dbg !2451
  %_6 = getelementptr inbounds [0 x %"alloc::string::String"], ptr %_1.0, i64 0, i64 %3, !dbg !2451
  %4 = load i64, ptr %_3, align 8, !dbg !2451
  %5 = add i64 %4, 1, !dbg !2451
  store i64 %5, ptr %_3, align 8, !dbg !2451
; invoke core::ptr::drop_in_place<alloc::string::String>
  invoke void @"_ZN4core3ptr42drop_in_place$LT$alloc..string..String$GT$17hc9872b1fb13f053eE"(ptr align 8 %_6)
          to label %bb6 unwind label %cleanup, !dbg !2451

bb1:                                              ; preds = %bb6
  ret void, !dbg !2451

bb4:                                              ; preds = %bb3, %cleanup
  %6 = load i64, ptr %_3, align 8, !dbg !2451
  %_5 = icmp eq i64 %6, %_1.1, !dbg !2451
  br i1 %_5, label %bb2, label %bb3, !dbg !2451

cleanup:                                          ; preds = %bb5
  %7 = landingpad { ptr, i32 }
          cleanup
  %8 = extractvalue { ptr, i32 } %7, 0
  %9 = extractvalue { ptr, i32 } %7, 1
  store ptr %8, ptr %0, align 8
  %10 = getelementptr inbounds i8, ptr %0, i64 8
  store i32 %9, ptr %10, align 8
  br label %bb4

bb3:                                              ; preds = %bb4
  %11 = load i64, ptr %_3, align 8, !dbg !2451
  %_4 = getelementptr inbounds [0 x %"alloc::string::String"], ptr %_1.0, i64 0, i64 %11, !dbg !2451
  %12 = load i64, ptr %_3, align 8, !dbg !2451
  %13 = add i64 %12, 1, !dbg !2451
  store i64 %13, ptr %_3, align 8, !dbg !2451
; invoke core::ptr::drop_in_place<alloc::string::String>
  invoke void @"_ZN4core3ptr42drop_in_place$LT$alloc..string..String$GT$17hc9872b1fb13f053eE"(ptr align 8 %_4) #18
          to label %bb4 unwind label %terminate, !dbg !2451

bb2:                                              ; preds = %bb4
  %14 = load ptr, ptr %0, align 8, !dbg !2451
  %15 = getelementptr inbounds i8, ptr %0, i64 8, !dbg !2451
  %16 = load i32, ptr %15, align 8, !dbg !2451
  %17 = insertvalue { ptr, i32 } poison, ptr %14, 0, !dbg !2451
  %18 = insertvalue { ptr, i32 } %17, i32 %16, 1, !dbg !2451
  resume { ptr, i32 } %18, !dbg !2451

terminate:                                        ; preds = %bb3
  %19 = landingpad { ptr, i32 }
          filter [0 x ptr] zeroinitializer
  %20 = extractvalue { ptr, i32 } %19, 0
  %21 = extractvalue { ptr, i32 } %19, 1
; call core::panicking::panic_in_cleanup
  call void @_ZN4core9panicking16panic_in_cleanup17h219356accc837b92E() #19, !dbg !2451
  unreachable, !dbg !2451
}

; core::ptr::drop_in_place<std::sys::pal::unix::args::Args>
; Function Attrs: nonlazybind uwtable
define internal void @"_ZN4core3ptr52drop_in_place$LT$std..sys..pal..unix..args..Args$GT$17h4b7c6c3e23d84d39E"(ptr align 8 %_1) unnamed_addr #0 !dbg !2452 {
start:
  %_1.dbg.spill = alloca [8 x i8], align 8
  store ptr %_1, ptr %_1.dbg.spill, align 8
    #dbg_declare(ptr %_1.dbg.spill, !2457, !DIExpression(), !2460)
; call core::ptr::drop_in_place<alloc::vec::into_iter::IntoIter<std::ffi::os_str::OsString>>
  call void @"_ZN4core3ptr86drop_in_place$LT$alloc..vec..into_iter..IntoIter$LT$std..ffi..os_str..OsString$GT$$GT$17h782b6cf345c367a3E"(ptr align 8 %_1), !dbg !2460
  ret void, !dbg !2460
}

; core::ptr::drop_in_place<alloc::raw_vec::RawVec<u8>>
; Function Attrs: nonlazybind uwtable
define internal void @"_ZN4core3ptr53drop_in_place$LT$alloc..raw_vec..RawVec$LT$u8$GT$$GT$17h860339eaa79c8b25E"(ptr align 8 %_1) unnamed_addr #0 !dbg !2461 {
start:
  %_1.dbg.spill = alloca [8 x i8], align 8
  store ptr %_1, ptr %_1.dbg.spill, align 8
    #dbg_declare(ptr %_1.dbg.spill, !2466, !DIExpression(), !2469)
; call <alloc::raw_vec::RawVec<T,A> as core::ops::drop::Drop>::drop
  call void @"_ZN77_$LT$alloc..raw_vec..RawVec$LT$T$C$A$GT$$u20$as$u20$core..ops..drop..Drop$GT$4drop17hc7fee000032fcd61E"(ptr align 8 %_1), !dbg !2469
  ret void, !dbg !2469
}

; core::ptr::drop_in_place<alloc::raw_vec::RawVec<i32>>
; Function Attrs: nonlazybind uwtable
define internal void @"_ZN4core3ptr54drop_in_place$LT$alloc..raw_vec..RawVec$LT$i32$GT$$GT$17h78681c9be9dc6756E"(ptr align 8 %_1) unnamed_addr #0 !dbg !2470 {
start:
  %_1.dbg.spill = alloca [8 x i8], align 8
  store ptr %_1, ptr %_1.dbg.spill, align 8
    #dbg_declare(ptr %_1.dbg.spill, !2475, !DIExpression(), !2478)
; call <alloc::raw_vec::RawVec<T,A> as core::ops::drop::Drop>::drop
  call void @"_ZN77_$LT$alloc..raw_vec..RawVec$LT$T$C$A$GT$$u20$as$u20$core..ops..drop..Drop$GT$4drop17h50ce56c6a04cb9d5E"(ptr align 8 %_1), !dbg !2478
  ret void, !dbg !2478
}

; core::ptr::drop_in_place<[std::ffi::os_str::OsString]>
; Function Attrs: nonlazybind uwtable
define internal void @"_ZN4core3ptr57drop_in_place$LT$$u5b$std..ffi..os_str..OsString$u5d$$GT$17hfc4c423f7d99f530E"(ptr align 8 %_1.0, i64 %_1.1) unnamed_addr #0 personality ptr @rust_eh_personality !dbg !2479 {
start:
  %0 = alloca [16 x i8], align 8
  %_1.dbg.spill = alloca [16 x i8], align 8
  %_3 = alloca [8 x i8], align 8
  store ptr %_1.0, ptr %_1.dbg.spill, align 8
  %1 = getelementptr inbounds i8, ptr %_1.dbg.spill, i64 8
  store i64 %_1.1, ptr %1, align 8
    #dbg_declare(ptr %_1.dbg.spill, !2488, !DIExpression(), !2489)
  store i64 0, ptr %_3, align 8, !dbg !2489
  br label %bb6, !dbg !2489

bb6:                                              ; preds = %bb5, %start
  %2 = load i64, ptr %_3, align 8, !dbg !2489
  %_7 = icmp eq i64 %2, %_1.1, !dbg !2489
  br i1 %_7, label %bb1, label %bb5, !dbg !2489

bb5:                                              ; preds = %bb6
  %3 = load i64, ptr %_3, align 8, !dbg !2489
  %_6 = getelementptr inbounds [0 x %"std::ffi::os_str::OsString"], ptr %_1.0, i64 0, i64 %3, !dbg !2489
  %4 = load i64, ptr %_3, align 8, !dbg !2489
  %5 = add i64 %4, 1, !dbg !2489
  store i64 %5, ptr %_3, align 8, !dbg !2489
; invoke core::ptr::drop_in_place<std::ffi::os_str::OsString>
  invoke void @"_ZN4core3ptr47drop_in_place$LT$std..ffi..os_str..OsString$GT$17h0bfc5b382181a693E"(ptr align 8 %_6)
          to label %bb6 unwind label %cleanup, !dbg !2489

bb1:                                              ; preds = %bb6
  ret void, !dbg !2489

bb4:                                              ; preds = %bb3, %cleanup
  %6 = load i64, ptr %_3, align 8, !dbg !2489
  %_5 = icmp eq i64 %6, %_1.1, !dbg !2489
  br i1 %_5, label %bb2, label %bb3, !dbg !2489

cleanup:                                          ; preds = %bb5
  %7 = landingpad { ptr, i32 }
          cleanup
  %8 = extractvalue { ptr, i32 } %7, 0
  %9 = extractvalue { ptr, i32 } %7, 1
  store ptr %8, ptr %0, align 8
  %10 = getelementptr inbounds i8, ptr %0, i64 8
  store i32 %9, ptr %10, align 8
  br label %bb4

bb3:                                              ; preds = %bb4
  %11 = load i64, ptr %_3, align 8, !dbg !2489
  %_4 = getelementptr inbounds [0 x %"std::ffi::os_str::OsString"], ptr %_1.0, i64 0, i64 %11, !dbg !2489
  %12 = load i64, ptr %_3, align 8, !dbg !2489
  %13 = add i64 %12, 1, !dbg !2489
  store i64 %13, ptr %_3, align 8, !dbg !2489
; invoke core::ptr::drop_in_place<std::ffi::os_str::OsString>
  invoke void @"_ZN4core3ptr47drop_in_place$LT$std..ffi..os_str..OsString$GT$17h0bfc5b382181a693E"(ptr align 8 %_4) #18
          to label %bb4 unwind label %terminate, !dbg !2489

bb2:                                              ; preds = %bb4
  %14 = load ptr, ptr %0, align 8, !dbg !2489
  %15 = getelementptr inbounds i8, ptr %0, i64 8, !dbg !2489
  %16 = load i32, ptr %15, align 8, !dbg !2489
  %17 = insertvalue { ptr, i32 } poison, ptr %14, 0, !dbg !2489
  %18 = insertvalue { ptr, i32 } %17, i32 %16, 1, !dbg !2489
  resume { ptr, i32 } %18, !dbg !2489

terminate:                                        ; preds = %bb3
  %19 = landingpad { ptr, i32 }
          filter [0 x ptr] zeroinitializer
  %20 = extractvalue { ptr, i32 } %19, 0
  %21 = extractvalue { ptr, i32 } %19, 1
; call core::panicking::panic_in_cleanup
  call void @_ZN4core9panicking16panic_in_cleanup17h219356accc837b92E() #19, !dbg !2489
  unreachable, !dbg !2489
}

; core::ptr::drop_in_place<&core::option::Option<usize>>
; Function Attrs: inlinehint nonlazybind uwtable
define internal void @"_ZN4core3ptr58drop_in_place$LT$$RF$core..option..Option$LT$usize$GT$$GT$17hba343e22c3c0e58bE"(ptr align 8 %_1) unnamed_addr #1 !dbg !2490 {
start:
  %_1.dbg.spill = alloca [8 x i8], align 8
  store ptr %_1, ptr %_1.dbg.spill, align 8
    #dbg_declare(ptr %_1.dbg.spill, !2495, !DIExpression(), !2498)
  ret void, !dbg !2498
}

; core::ptr::drop_in_place<alloc::vec::set_len_on_drop::SetLenOnDrop>
; Function Attrs: nonlazybind uwtable
define internal void @"_ZN4core3ptr62drop_in_place$LT$alloc..vec..set_len_on_drop..SetLenOnDrop$GT$17h0aec91d79680e801E"(ptr align 8 %_1) unnamed_addr #0 !dbg !2499 {
start:
  %_1.dbg.spill = alloca [8 x i8], align 8
  store ptr %_1, ptr %_1.dbg.spill, align 8
    #dbg_declare(ptr %_1.dbg.spill, !2504, !DIExpression(), !2507)
; call <alloc::vec::set_len_on_drop::SetLenOnDrop as core::ops::drop::Drop>::drop
  call void @"_ZN83_$LT$alloc..vec..set_len_on_drop..SetLenOnDrop$u20$as$u20$core..ops..drop..Drop$GT$4drop17hfe37f28440842efaE"(ptr align 8 %_1), !dbg !2507
  ret void, !dbg !2507
}

; core::ptr::drop_in_place<alloc::vec::Vec<alloc::string::String>>
; Function Attrs: nonlazybind uwtable
define internal void @"_ZN4core3ptr65drop_in_place$LT$alloc..vec..Vec$LT$alloc..string..String$GT$$GT$17h3fb532810bbc0f62E"(ptr align 8 %_1) unnamed_addr #0 personality ptr @rust_eh_personality !dbg !2508 {
start:
  %0 = alloca [16 x i8], align 8
  %_1.dbg.spill = alloca [8 x i8], align 8
  store ptr %_1, ptr %_1.dbg.spill, align 8
    #dbg_declare(ptr %_1.dbg.spill, !2513, !DIExpression(), !2516)
; invoke <alloc::vec::Vec<T,A> as core::ops::drop::Drop>::drop
  invoke void @"_ZN70_$LT$alloc..vec..Vec$LT$T$C$A$GT$$u20$as$u20$core..ops..drop..Drop$GT$4drop17h560d48a39290397cE"(ptr align 8 %_1)
          to label %bb4 unwind label %cleanup, !dbg !2516

bb3:                                              ; preds = %cleanup
; invoke core::ptr::drop_in_place<alloc::raw_vec::RawVec<alloc::string::String>>
  invoke void @"_ZN4core3ptr72drop_in_place$LT$alloc..raw_vec..RawVec$LT$alloc..string..String$GT$$GT$17hfca196ec94fd4deaE"(ptr align 8 %_1) #18
          to label %bb1 unwind label %terminate, !dbg !2516

cleanup:                                          ; preds = %start
  %1 = landingpad { ptr, i32 }
          cleanup
  %2 = extractvalue { ptr, i32 } %1, 0
  %3 = extractvalue { ptr, i32 } %1, 1
  store ptr %2, ptr %0, align 8
  %4 = getelementptr inbounds i8, ptr %0, i64 8
  store i32 %3, ptr %4, align 8
  br label %bb3

bb4:                                              ; preds = %start
; call core::ptr::drop_in_place<alloc::raw_vec::RawVec<alloc::string::String>>
  call void @"_ZN4core3ptr72drop_in_place$LT$alloc..raw_vec..RawVec$LT$alloc..string..String$GT$$GT$17hfca196ec94fd4deaE"(ptr align 8 %_1), !dbg !2516
  ret void, !dbg !2516

terminate:                                        ; preds = %bb3
  %5 = landingpad { ptr, i32 }
          filter [0 x ptr] zeroinitializer
  %6 = extractvalue { ptr, i32 } %5, 0
  %7 = extractvalue { ptr, i32 } %5, 1
; call core::panicking::panic_in_cleanup
  call void @_ZN4core9panicking16panic_in_cleanup17h219356accc837b92E() #19, !dbg !2516
  unreachable, !dbg !2516

bb1:                                              ; preds = %bb3
  %8 = load ptr, ptr %0, align 8, !dbg !2516
  %9 = getelementptr inbounds i8, ptr %0, i64 8, !dbg !2516
  %10 = load i32, ptr %9, align 8, !dbg !2516
  %11 = insertvalue { ptr, i32 } poison, ptr %8, 0, !dbg !2516
  %12 = insertvalue { ptr, i32 } %11, i32 %10, 1, !dbg !2516
  resume { ptr, i32 } %12, !dbg !2516
}

; core::ptr::drop_in_place<core::option::Option<alloc::string::String>>
; Function Attrs: nonlazybind uwtable
define internal void @"_ZN4core3ptr70drop_in_place$LT$core..option..Option$LT$alloc..string..String$GT$$GT$17hbf3b1e1049579ab6E"(ptr align 8 %_1) unnamed_addr #0 !dbg !2517 {
start:
  %_1.dbg.spill = alloca [8 x i8], align 8
  store ptr %_1, ptr %_1.dbg.spill, align 8
    #dbg_declare(ptr %_1.dbg.spill, !2533, !DIExpression(), !2536)
  %0 = load i64, ptr %_1, align 8, !dbg !2536
  %1 = icmp eq i64 %0, -9223372036854775808, !dbg !2536
  %_2 = select i1 %1, i64 0, i64 1, !dbg !2536
  %2 = icmp eq i64 %_2, 0, !dbg !2536
  br i1 %2, label %bb1, label %bb2, !dbg !2536

bb1:                                              ; preds = %bb2, %start
  ret void, !dbg !2536

bb2:                                              ; preds = %start
; call core::ptr::drop_in_place<alloc::string::String>
  call void @"_ZN4core3ptr42drop_in_place$LT$alloc..string..String$GT$17hc9872b1fb13f053eE"(ptr align 8 %_1), !dbg !2536
  br label %bb1, !dbg !2536
}

; core::ptr::drop_in_place<alloc::raw_vec::RawVec<alloc::string::String>>
; Function Attrs: nonlazybind uwtable
define internal void @"_ZN4core3ptr72drop_in_place$LT$alloc..raw_vec..RawVec$LT$alloc..string..String$GT$$GT$17hfca196ec94fd4deaE"(ptr align 8 %_1) unnamed_addr #0 !dbg !2537 {
start:
  %_1.dbg.spill = alloca [8 x i8], align 8
  store ptr %_1, ptr %_1.dbg.spill, align 8
    #dbg_declare(ptr %_1.dbg.spill, !2542, !DIExpression(), !2545)
; call <alloc::raw_vec::RawVec<T,A> as core::ops::drop::Drop>::drop
  call void @"_ZN77_$LT$alloc..raw_vec..RawVec$LT$T$C$A$GT$$u20$as$u20$core..ops..drop..Drop$GT$4drop17h0842771ec8efe348E"(ptr align 8 %_1), !dbg !2545
  ret void, !dbg !2545
}

; core::ptr::drop_in_place<alloc::raw_vec::RawVec<std::ffi::os_str::OsString>>
; Function Attrs: nonlazybind uwtable
define internal void @"_ZN4core3ptr77drop_in_place$LT$alloc..raw_vec..RawVec$LT$std..ffi..os_str..OsString$GT$$GT$17h65af24f4c854a39aE"(ptr align 8 %_1) unnamed_addr #0 !dbg !2546 {
start:
  %_1.dbg.spill = alloca [8 x i8], align 8
  store ptr %_1, ptr %_1.dbg.spill, align 8
    #dbg_declare(ptr %_1.dbg.spill, !2551, !DIExpression(), !2554)
; call <alloc::raw_vec::RawVec<T,A> as core::ops::drop::Drop>::drop
  call void @"_ZN77_$LT$alloc..raw_vec..RawVec$LT$T$C$A$GT$$u20$as$u20$core..ops..drop..Drop$GT$4drop17h8f0de8a82c2685f8E"(ptr align 8 %_1), !dbg !2554
  ret void, !dbg !2554
}

; core::ptr::drop_in_place<std::rt::lang_start<()>::{{closure}}>
; Function Attrs: inlinehint nonlazybind uwtable
define internal void @"_ZN4core3ptr85drop_in_place$LT$std..rt..lang_start$LT$$LP$$RP$$GT$..$u7b$$u7b$closure$u7d$$u7d$$GT$17h38841f83940f00e3E"(ptr align 8 %_1) unnamed_addr #1 !dbg !2555 {
start:
  %_1.dbg.spill = alloca [8 x i8], align 8
  store ptr %_1, ptr %_1.dbg.spill, align 8
    #dbg_declare(ptr %_1.dbg.spill, !2559, !DIExpression(), !2562)
  ret void, !dbg !2562
}

; core::ptr::drop_in_place<alloc::vec::into_iter::IntoIter<std::ffi::os_str::OsString>>
; Function Attrs: nonlazybind uwtable
define internal void @"_ZN4core3ptr86drop_in_place$LT$alloc..vec..into_iter..IntoIter$LT$std..ffi..os_str..OsString$GT$$GT$17h782b6cf345c367a3E"(ptr align 8 %_1) unnamed_addr #0 !dbg !2563 {
start:
  %_1.dbg.spill = alloca [8 x i8], align 8
  store ptr %_1, ptr %_1.dbg.spill, align 8
    #dbg_declare(ptr %_1.dbg.spill, !2568, !DIExpression(), !2571)
; call <alloc::vec::into_iter::IntoIter<T,A> as core::ops::drop::Drop>::drop
  call void @"_ZN86_$LT$alloc..vec..into_iter..IntoIter$LT$T$C$A$GT$$u20$as$u20$core..ops..drop..Drop$GT$4drop17hfca5b977ae98c353E"(ptr align 8 %_1), !dbg !2571
  ret void, !dbg !2571
}

; core::ptr::const_ptr::<impl *const T>::sub_ptr::precondition_check
; Function Attrs: inlinehint nounwind nonlazybind uwtable
define internal void @"_ZN4core3ptr9const_ptr33_$LT$impl$u20$$BP$const$u20$T$GT$7sub_ptr18precondition_check17hdb5ac442bee26a31E"(ptr %this, ptr %origin) unnamed_addr #4 !dbg !2572 {
start:
  %origin.dbg.spill = alloca [8 x i8], align 8
  %this.dbg.spill = alloca [8 x i8], align 8
  store ptr %this, ptr %this.dbg.spill, align 8
    #dbg_declare(ptr %this.dbg.spill, !2577, !DIExpression(), !2579)
    #dbg_declare(ptr %this.dbg.spill, !2580, !DIExpression(), !2586)
    #dbg_declare(ptr %this.dbg.spill, !2589, !DIExpression(), !2594)
  store ptr %origin, ptr %origin.dbg.spill, align 8
    #dbg_declare(ptr %origin.dbg.spill, !2578, !DIExpression(), !2579)
    #dbg_declare(ptr %origin.dbg.spill, !2585, !DIExpression(), !2597)
    #dbg_declare(ptr %origin.dbg.spill, !2593, !DIExpression(), !2594)
  %_3 = icmp uge ptr %this, %origin, !dbg !2598
  br i1 %_3, label %bb1, label %bb2, !dbg !2587

bb2:                                              ; preds = %start
; call core::panicking::panic_nounwind
  call void @_ZN4core9panicking14panic_nounwind17hfc854da59c4c7125E(ptr align 1 @alloc_7efb3a7632b3620f628ce83a521b4d9b, i64 71) #20, !dbg !2600
  unreachable, !dbg !2600

bb1:                                              ; preds = %start
  ret void, !dbg !2601
}

; core::str::<impl str>::parse
; Function Attrs: inlinehint nonlazybind uwtable
define internal void @"_ZN4core3str21_$LT$impl$u20$str$GT$5parse17hcd3c793e7e7876c3E"(ptr sret([16 x i8]) align 8 %_0, ptr align 1 %self.0, i64 %self.1) unnamed_addr #1 !dbg !2602 {
start:
  %self.dbg.spill = alloca [16 x i8], align 8
  store ptr %self.0, ptr %self.dbg.spill, align 8
  %0 = getelementptr inbounds i8, ptr %self.dbg.spill, i64 8
  store i64 %self.1, ptr %0, align 8
    #dbg_declare(ptr %self.dbg.spill, !2604, !DIExpression(), !2607)
; call core::num::<impl core::str::traits::FromStr for usize>::from_str
  call void @"_ZN4core3num62_$LT$impl$u20$core..str..traits..FromStr$u20$for$u20$usize$GT$8from_str17h0631fca801abf9c3E"(ptr sret([16 x i8]) align 8 %_0, ptr align 1 %self.0, i64 %self.1), !dbg !2608
  ret void, !dbg !2609
}

; core::char::methods::<impl char>::to_digit
; Function Attrs: inlinehint nonlazybind uwtable
define internal { i32, i32 } @"_ZN4core4char7methods22_$LT$impl$u20$char$GT$8to_digit17h685b3c1ad09375a2E"(i32 %self, i32 %radix) unnamed_addr #1 !dbg !2610 {
start:
  %lower.dbg.spill = alloca [4 x i8], align 4
  %self.dbg.spill2 = alloca [4 x i8], align 4
  %rhs.dbg.spill1 = alloca [4 x i8], align 4
  %rhs.dbg.spill = alloca [4 x i8], align 4
  %pieces.dbg.spill = alloca [8 x i8], align 8
  %radix.dbg.spill = alloca [4 x i8], align 4
  %self.dbg.spill = alloca [4 x i8], align 4
  %value = alloca [8 x i8], align 8
  %_6 = alloca [48 x i8], align 8
  %_0 = alloca [8 x i8], align 4
  store i32 %self, ptr %self.dbg.spill, align 4
    #dbg_declare(ptr %self.dbg.spill, !2629, !DIExpression(), !2635)
  store i32 %radix, ptr %radix.dbg.spill, align 4
    #dbg_declare(ptr %radix.dbg.spill, !2630, !DIExpression(), !2636)
    #dbg_declare(ptr %value, !2631, !DIExpression(), !2637)
  store ptr @alloc_708eb9f2492b697e0d761b647be5d46c, ptr %pieces.dbg.spill, align 8, !dbg !2638
    #dbg_declare(ptr %pieces.dbg.spill, !2641, !DIExpression(), !2638)
  store i32 97, ptr %rhs.dbg.spill, align 4, !dbg !2643
    #dbg_declare(ptr %rhs.dbg.spill, !2647, !DIExpression(), !2643)
  store i32 48, ptr %rhs.dbg.spill1, align 4, !dbg !2649
    #dbg_declare(ptr %rhs.dbg.spill1, !2647, !DIExpression(), !2649)
  %_3 = icmp uge i32 %radix, 2, !dbg !2651
  br i1 %_3, label %bb1, label %bb3, !dbg !2651

bb3:                                              ; preds = %bb1, %start
  store ptr @alloc_708eb9f2492b697e0d761b647be5d46c, ptr %_6, align 8, !dbg !2652
  %0 = getelementptr inbounds i8, ptr %_6, i64 8, !dbg !2652
  store i64 1, ptr %0, align 8, !dbg !2652
  %1 = load ptr, ptr @0, align 8, !dbg !2652
  %2 = load i64, ptr getelementptr inbounds (i8, ptr @0, i64 8), align 8, !dbg !2652
  %3 = getelementptr inbounds i8, ptr %_6, i64 32, !dbg !2652
  store ptr %1, ptr %3, align 8, !dbg !2652
  %4 = getelementptr inbounds i8, ptr %3, i64 8, !dbg !2652
  store i64 %2, ptr %4, align 8, !dbg !2652
  %5 = getelementptr inbounds i8, ptr %_6, i64 16, !dbg !2652
  store ptr inttoptr (i64 8 to ptr), ptr %5, align 8, !dbg !2652
  %6 = getelementptr inbounds i8, ptr %5, i64 8, !dbg !2652
  store i64 0, ptr %6, align 8, !dbg !2652
; call core::panicking::panic_fmt
  call void @_ZN4core9panicking9panic_fmt17h74866b78e934b1c0E(ptr align 8 %_6, ptr align 8 @alloc_b348e9f225e28265455142b51d4e8674) #17, !dbg !2642
  unreachable, !dbg !2642

bb1:                                              ; preds = %start
  %_4 = icmp ule i32 %radix, 36, !dbg !2653
  br i1 %_4, label %bb2, label %bb3, !dbg !2653

bb2:                                              ; preds = %bb1
  %_8 = icmp ugt i32 %self, 57, !dbg !2654
  br i1 %_8, label %bb4, label %bb6, !dbg !2654

bb6:                                              ; preds = %bb4, %bb2
  store i32 %self, ptr %self.dbg.spill2, align 4, !dbg !2655
    #dbg_declare(ptr %self.dbg.spill2, !2646, !DIExpression(), !2656)
  %_14 = sub i32 %self, 48, !dbg !2657
  %7 = zext i32 %_14 to i64, !dbg !2655
  store i64 %7, ptr %value, align 8, !dbg !2655
  br label %bb7, !dbg !2658

bb4:                                              ; preds = %bb2
  %_9 = icmp ugt i32 %radix, 10, !dbg !2659
  br i1 %_9, label %bb5, label %bb6, !dbg !2659

bb5:                                              ; preds = %bb4
  %lower = or i32 %self, 32, !dbg !2660
  store i32 %lower, ptr %lower.dbg.spill, align 4, !dbg !2660
    #dbg_declare(ptr %lower.dbg.spill, !2633, !DIExpression(), !2661)
    #dbg_declare(ptr %lower.dbg.spill, !2646, !DIExpression(), !2662)
  %_13 = sub i32 %lower, 97, !dbg !2663
  %_12 = zext i32 %_13 to i64, !dbg !2664
  %8 = add i64 %_12, 10, !dbg !2664
  store i64 %8, ptr %value, align 8, !dbg !2664
  br label %bb7, !dbg !2658

bb7:                                              ; preds = %bb5, %bb6
  %_17 = load i64, ptr %value, align 8, !dbg !2665
  %_18 = zext i32 %radix to i64, !dbg !2666
  %_16 = icmp ult i64 %_17, %_18, !dbg !2665
  br i1 %_16, label %bb8, label %bb9, !dbg !2665

bb9:                                              ; preds = %bb7
  %9 = load i32, ptr @1, align 4, !dbg !2667
  %10 = load i32, ptr getelementptr inbounds (i8, ptr @1, i64 4), align 4, !dbg !2667
  store i32 %9, ptr %_0, align 4, !dbg !2667
  %11 = getelementptr inbounds i8, ptr %_0, i64 4, !dbg !2667
  store i32 %10, ptr %11, align 4, !dbg !2667
  br label %bb10, !dbg !2668

bb8:                                              ; preds = %bb7
  %_20 = load i64, ptr %value, align 8, !dbg !2669
  %_19 = trunc i64 %_20 to i32, !dbg !2669
  %12 = getelementptr inbounds i8, ptr %_0, i64 4, !dbg !2670
  store i32 %_19, ptr %12, align 4, !dbg !2670
  store i32 1, ptr %_0, align 4, !dbg !2670
  br label %bb10, !dbg !2668

bb10:                                             ; preds = %bb8, %bb9
  %13 = load i32, ptr %_0, align 4, !dbg !2671
  %14 = getelementptr inbounds i8, ptr %_0, i64 4, !dbg !2671
  %15 = load i32, ptr %14, align 4, !dbg !2671
  %16 = insertvalue { i32, i32 } poison, i32 %13, 0, !dbg !2671
  %17 = insertvalue { i32, i32 } %16, i32 %15, 1, !dbg !2671
  ret { i32, i32 } %17, !dbg !2671
}

; core::hint::assert_unchecked::precondition_check
; Function Attrs: inlinehint nounwind nonlazybind uwtable
define internal void @_ZN4core4hint16assert_unchecked18precondition_check17he22cb46f07a57b70E(i1 zeroext %cond) unnamed_addr #4 !dbg !2672 {
start:
  %cond.dbg.spill = alloca [1 x i8], align 1
  %0 = zext i1 %cond to i8
  store i8 %0, ptr %cond.dbg.spill, align 1
    #dbg_declare(ptr %cond.dbg.spill, !2677, !DIExpression(), !2678)
  br i1 %cond, label %bb2, label %bb1, !dbg !2679

bb1:                                              ; preds = %start
; call core::panicking::panic_nounwind
  call void @_ZN4core9panicking14panic_nounwind17hfc854da59c4c7125E(ptr align 1 @alloc_ab14703751a9eb3585c49b2e55e9a9e5, i64 104) #20, !dbg !2681
  unreachable, !dbg !2681

bb2:                                              ; preds = %start
  ret void, !dbg !2682
}

; core::iter::range::<impl core::iter::traits::iterator::Iterator for core::ops::range::Range<A>>::next
; Function Attrs: inlinehint nonlazybind uwtable
define internal { i64, i64 } @"_ZN4core4iter5range101_$LT$impl$u20$core..iter..traits..iterator..Iterator$u20$for$u20$core..ops..range..Range$LT$A$GT$$GT$4next17hc919893041f5c652E"(ptr align 8 %self) unnamed_addr #1 !dbg !2683 {
start:
  %self.dbg.spill = alloca [8 x i8], align 8
  store ptr %self, ptr %self.dbg.spill, align 8
    #dbg_declare(ptr %self.dbg.spill, !2689, !DIExpression(), !2692)
; call <core::ops::range::Range<T> as core::iter::range::RangeIteratorImpl>::spec_next
  %0 = call { i64, i64 } @"_ZN89_$LT$core..ops..range..Range$LT$T$GT$$u20$as$u20$core..iter..range..RangeIteratorImpl$GT$9spec_next17hb1ba09804576fd92E"(ptr align 8 %self), !dbg !2693
  %_0.0 = extractvalue { i64, i64 } %0, 0, !dbg !2693
  %_0.1 = extractvalue { i64, i64 } %0, 1, !dbg !2693
  %1 = insertvalue { i64, i64 } poison, i64 %_0.0, 0, !dbg !2694
  %2 = insertvalue { i64, i64 } %1, i64 %_0.1, 1, !dbg !2694
  ret { i64, i64 } %2, !dbg !2694
}

; core::iter::range::<impl core::iter::traits::iterator::Iterator for core::ops::range::Range<A>>::size_hint
; Function Attrs: inlinehint nonlazybind uwtable
define internal void @"_ZN4core4iter5range101_$LT$impl$u20$core..iter..traits..iterator..Iterator$u20$for$u20$core..ops..range..Range$LT$A$GT$$GT$9size_hint17h6a58cfea725376e1E"(ptr sret([24 x i8]) align 8 %_0, ptr align 8 %self) unnamed_addr #1 !dbg !2695 {
start:
  %other.dbg.spill.i = alloca [8 x i8], align 8
  %self.dbg.spill.i = alloca [8 x i8], align 8
  %self.dbg.spill = alloca [8 x i8], align 8
  store ptr %self, ptr %self.dbg.spill, align 8
    #dbg_declare(ptr %self.dbg.spill, !2699, !DIExpression(), !2700)
  %_4 = getelementptr inbounds i8, ptr %self, i64 8, !dbg !2701
  store ptr %self, ptr %self.dbg.spill.i, align 8
    #dbg_declare(ptr %self.dbg.spill.i, !581, !DIExpression(), !2702)
  store ptr %_4, ptr %other.dbg.spill.i, align 8
    #dbg_declare(ptr %other.dbg.spill.i, !587, !DIExpression(), !2704)
  %_3.i = load i64, ptr %self, align 8, !dbg !2705
  %_4.i = load i64, ptr %_4, align 8, !dbg !2706
  %_0.i = icmp ult i64 %_3.i, %_4.i, !dbg !2705
  br i1 %_0.i, label %bb2, label %bb3, !dbg !2707

bb3:                                              ; preds = %start
  store i64 0, ptr %_0, align 8, !dbg !2708
  %0 = load i64, ptr @2, align 8, !dbg !2708
  %1 = load i64, ptr getelementptr inbounds (i8, ptr @2, i64 8), align 8, !dbg !2708
  %2 = getelementptr inbounds i8, ptr %_0, i64 8, !dbg !2708
  store i64 %0, ptr %2, align 8, !dbg !2708
  %3 = getelementptr inbounds i8, ptr %2, i64 8, !dbg !2708
  store i64 %1, ptr %3, align 8, !dbg !2708
  br label %bb4, !dbg !2709

bb2:                                              ; preds = %start
  %_6 = getelementptr inbounds i8, ptr %self, i64 8, !dbg !2710
; call <usize as core::iter::range::Step>::steps_between
  call void @"_ZN49_$LT$usize$u20$as$u20$core..iter..range..Step$GT$13steps_between17he24cace596fb66e6E"(ptr sret([24 x i8]) align 8 %_0, ptr align 8 %self, ptr align 8 %_6), !dbg !2711
  br label %bb4, !dbg !2711

bb4:                                              ; preds = %bb2, %bb3
  ret void, !dbg !2712
}

; core::iter::traits::exact_size::ExactSizeIterator::len
; Function Attrs: inlinehint nonlazybind uwtable
define internal i64 @_ZN4core4iter6traits10exact_size17ExactSizeIterator3len17h94b73c62763f1595E(ptr align 8 %self) unnamed_addr #1 !dbg !2713 {
start:
  %r.dbg.spill = alloca [8 x i8], align 8
  %l.dbg.spill = alloca [8 x i8], align 8
  %right_val.dbg.spill = alloca [8 x i8], align 8
  %left_val.dbg.spill = alloca [8 x i8], align 8
  %lower.dbg.spill = alloca [8 x i8], align 8
  %kind.dbg.spill = alloca [1 x i8], align 1
  %self.dbg.spill = alloca [8 x i8], align 8
  %_9 = alloca [48 x i8], align 8
  %_6 = alloca [16 x i8], align 8
  %_3 = alloca [24 x i8], align 8
  %upper = alloca [16 x i8], align 8
  store ptr %self, ptr %self.dbg.spill, align 8
    #dbg_declare(ptr %self.dbg.spill, !2720, !DIExpression(), !2732)
    #dbg_declare(ptr %upper, !2723, !DIExpression(), !2733)
  store i8 0, ptr %kind.dbg.spill, align 1, !dbg !2734
    #dbg_declare(ptr %kind.dbg.spill, !2728, !DIExpression(), !2734)
; call <alloc::vec::into_iter::IntoIter<T,A> as core::iter::traits::iterator::Iterator>::size_hint
  call void @"_ZN103_$LT$alloc..vec..into_iter..IntoIter$LT$T$C$A$GT$$u20$as$u20$core..iter..traits..iterator..Iterator$GT$9size_hint17hef84a52ed248a45aE"(ptr sret([24 x i8]) align 8 %_3, ptr align 8 %self), !dbg !2735
  %lower = load i64, ptr %_3, align 8, !dbg !2736
  store i64 %lower, ptr %lower.dbg.spill, align 8, !dbg !2736
    #dbg_declare(ptr %lower.dbg.spill, !2721, !DIExpression(), !2737)
  %0 = getelementptr inbounds i8, ptr %_3, i64 8, !dbg !2738
  %1 = load i64, ptr %0, align 8, !dbg !2738
  %2 = getelementptr inbounds i8, ptr %0, i64 8, !dbg !2738
  %3 = load i64, ptr %2, align 8, !dbg !2738
  store i64 %1, ptr %upper, align 8, !dbg !2738
  %4 = getelementptr inbounds i8, ptr %upper, i64 8, !dbg !2738
  store i64 %3, ptr %4, align 8, !dbg !2738
  store ptr %upper, ptr %left_val.dbg.spill, align 8, !dbg !2739
    #dbg_declare(ptr %left_val.dbg.spill, !2724, !DIExpression(), !2741)
    #dbg_declare(ptr %left_val.dbg.spill, !2742, !DIExpression(), !2753)
  %5 = getelementptr inbounds i8, ptr %_6, i64 8, !dbg !2755
  store i64 %lower, ptr %5, align 8, !dbg !2755
  store i64 1, ptr %_6, align 8, !dbg !2755
  store ptr %_6, ptr %right_val.dbg.spill, align 8, !dbg !2756
    #dbg_declare(ptr %right_val.dbg.spill, !2727, !DIExpression(), !2757)
    #dbg_declare(ptr %right_val.dbg.spill, !2749, !DIExpression(), !2758)
  %_10 = load i64, ptr %upper, align 8, !dbg !2759
  %6 = icmp eq i64 %_10, 0, !dbg !2760
  br i1 %6, label %bb5, label %bb6, !dbg !2760

bb5:                                              ; preds = %start
  br label %bb3, !dbg !2754

bb6:                                              ; preds = %start
  %l = getelementptr inbounds i8, ptr %upper, i64 8, !dbg !2761
  store ptr %l, ptr %l.dbg.spill, align 8, !dbg !2761
    #dbg_declare(ptr %l.dbg.spill, !2750, !DIExpression(), !2762)
    #dbg_declare(ptr %l.dbg.spill, !2763, !DIExpression(), !2768)
  %r = getelementptr inbounds i8, ptr %_6, i64 8, !dbg !2770
  store ptr %r, ptr %r.dbg.spill, align 8, !dbg !2770
    #dbg_declare(ptr %r.dbg.spill, !2752, !DIExpression(), !2771)
    #dbg_declare(ptr %r.dbg.spill, !2767, !DIExpression(), !2772)
  %7 = getelementptr inbounds i8, ptr %upper, i64 8, !dbg !2773
  %_13 = load i64, ptr %7, align 8, !dbg !2773
  %_7 = icmp eq i64 %_13, %lower, !dbg !2773
  br i1 %_7, label %bb2, label %bb3, !dbg !2754

bb3:                                              ; preds = %bb6, %bb5
  store ptr null, ptr %_9, align 8, !dbg !2774
; call core::panicking::assert_failed
  call void @_ZN4core9panicking13assert_failed17h85db1ef1f7971c50E(i8 0, ptr align 8 %upper, ptr align 8 %_6, ptr align 8 %_9, ptr align 8 @alloc_c8dbbe184416f818291635d2448bc5ee) #17, !dbg !2775
  unreachable, !dbg !2775

bb2:                                              ; preds = %bb6
  ret i64 %lower, !dbg !2776

bb4:                                              ; No predecessors!
  unreachable, !dbg !2759
}

; core::iter::traits::iterator::Iterator::map
; Function Attrs: inlinehint nonlazybind uwtable
define internal void @_ZN4core4iter6traits8iterator8Iterator3map17hd0ba5d4feef07f62E(ptr sret([24 x i8]) align 8 %_0, i64 %self.0, i64 %self.1, ptr align 8 %f) unnamed_addr #1 !dbg !2777 {
start:
  %f.dbg.spill = alloca [8 x i8], align 8
  %self.dbg.spill = alloca [16 x i8], align 8
  store i64 %self.0, ptr %self.dbg.spill, align 8
  %0 = getelementptr inbounds i8, ptr %self.dbg.spill, i64 8
  store i64 %self.1, ptr %0, align 8
    #dbg_declare(ptr %self.dbg.spill, !2782, !DIExpression(), !2786)
    #dbg_declare(ptr %self.dbg.spill, !2787, !DIExpression(), !2792)
  store ptr %f, ptr %f.dbg.spill, align 8
    #dbg_declare(ptr %f.dbg.spill, !2783, !DIExpression(), !2794)
    #dbg_declare(ptr %f.dbg.spill, !2791, !DIExpression(), !2795)
  %1 = getelementptr inbounds i8, ptr %_0, i64 8, !dbg !2796
  store i64 %self.0, ptr %1, align 8, !dbg !2796
  %2 = getelementptr inbounds i8, ptr %1, i64 8, !dbg !2796
  store i64 %self.1, ptr %2, align 8, !dbg !2796
  store ptr %f, ptr %_0, align 8, !dbg !2796
  ret void, !dbg !2797
}

; core::iter::traits::iterator::Iterator::fold
; Function Attrs: inlinehint nonlazybind uwtable
define internal void @_ZN4core4iter6traits8iterator8Iterator4fold17h81e14ea153493b72E(i64 %0, i64 %1, ptr align 8 %f) unnamed_addr #1 personality ptr @rust_eh_personality !dbg !2798 {
start:
  %x.dbg.spill = alloca [8 x i8], align 8
  %2 = alloca [16 x i8], align 8
  %accum.dbg.spill = alloca [0 x i8], align 1
  %init.dbg.spill = alloca [0 x i8], align 1
  %_13 = alloca [1 x i8], align 1
  %_5 = alloca [16 x i8], align 8
  %self = alloca [16 x i8], align 8
  store i64 %0, ptr %self, align 8
  %3 = getelementptr inbounds i8, ptr %self, i64 8
  store i64 %1, ptr %3, align 8
    #dbg_declare(ptr %self, !2802, !DIExpression(), !2812)
    #dbg_declare(ptr %init.dbg.spill, !2803, !DIExpression(), !2813)
    #dbg_declare(ptr %f, !2804, !DIExpression(), !2814)
    #dbg_declare(ptr %accum.dbg.spill, !2805, !DIExpression(), !2815)
  store i8 1, ptr %_13, align 1, !dbg !2816
  br label %bb1, !dbg !2817

bb1:                                              ; preds = %bb4, %start
; invoke core::iter::range::<impl core::iter::traits::iterator::Iterator for core::ops::range::Range<A>>::next
  %4 = invoke { i64, i64 } @"_ZN4core4iter5range101_$LT$impl$u20$core..iter..traits..iterator..Iterator$u20$for$u20$core..ops..range..Range$LT$A$GT$$GT$4next17hc919893041f5c652E"(ptr align 8 %self)
          to label %bb2 unwind label %cleanup, !dbg !2818

bb13:                                             ; preds = %cleanup
  %5 = load i8, ptr %_13, align 1, !dbg !2819
  %6 = trunc i8 %5 to i1, !dbg !2819
  br i1 %6, label %bb12, label %bb9, !dbg !2819

cleanup:                                          ; preds = %bb3, %bb1
  %7 = landingpad { ptr, i32 }
          cleanup
  %8 = extractvalue { ptr, i32 } %7, 0
  %9 = extractvalue { ptr, i32 } %7, 1
  store ptr %8, ptr %2, align 8
  %10 = getelementptr inbounds i8, ptr %2, i64 8
  store i32 %9, ptr %10, align 8
  br label %bb13

bb2:                                              ; preds = %bb1
  %11 = extractvalue { i64, i64 } %4, 0, !dbg !2818
  %12 = extractvalue { i64, i64 } %4, 1, !dbg !2818
  store i64 %11, ptr %_5, align 8, !dbg !2818
  %13 = getelementptr inbounds i8, ptr %_5, i64 8, !dbg !2818
  store i64 %12, ptr %13, align 8, !dbg !2818
  %_7 = load i64, ptr %_5, align 8, !dbg !2818
  %14 = icmp eq i64 %_7, 1, !dbg !2820
  br i1 %14, label %bb3, label %bb5, !dbg !2820

bb3:                                              ; preds = %bb2
  %15 = getelementptr inbounds i8, ptr %_5, i64 8, !dbg !2821
  %x = load i64, ptr %15, align 8, !dbg !2821
  store i64 %x, ptr %x.dbg.spill, align 8, !dbg !2821
    #dbg_declare(ptr %x.dbg.spill, !2807, !DIExpression(), !2821)
  store i8 0, ptr %_13, align 1, !dbg !2822
; invoke core::iter::adapters::map::map_fold::{{closure}}
  invoke void @"_ZN4core4iter8adapters3map8map_fold28_$u7b$$u7b$closure$u7d$$u7d$17hced9a8675b4e8084E"(ptr align 8 %f, i64 %x)
          to label %bb4 unwind label %cleanup, !dbg !2823

bb5:                                              ; preds = %bb2
  br label %bb6, !dbg !2824

bb4:                                              ; preds = %bb3
  store i8 1, ptr %_13, align 1, !dbg !2825
  br label %bb1, !dbg !2817

bb6:                                              ; preds = %bb5
; invoke core::ptr::drop_in_place<core::iter::adapters::map::map_fold<usize,i32,(),array_sum::main::{{closure}},core::iter::traits::iterator::Iterator::for_each::call<i32,alloc::vec::Vec<i32>::extend_trusted<core::iter::adapters::map::Map<core::ops::range::Range<usize>,array_sum::main::{{closure}}>>::{{closure}}>::{{closure}}>::{{closure}}>
  invoke void @"_ZN4core3ptr462drop_in_place$LT$core..iter..adapters..map..map_fold$LT$usize$C$i32$C$$LP$$RP$$C$array_sum..main..$u7b$$u7b$closure$u7d$$u7d$$C$core..iter..traits..iterator..Iterator..for_each..call$LT$i32$C$alloc..vec..Vec$LT$i32$GT$..extend_trusted$LT$core..iter..adapters..map..Map$LT$core..ops..range..Range$LT$usize$GT$$C$array_sum..main..$u7b$$u7b$closure$u7d$$u7d$$GT$$GT$..$u7b$$u7b$closure$u7d$$u7d$$GT$..$u7b$$u7b$closure$u7d$$u7d$$GT$..$u7b$$u7b$closure$u7d$$u7d$$GT$17hc8f540e8c148666fE"(ptr align 8 %f)
          to label %bb7 unwind label %cleanup1, !dbg !2819

bb10:                                             ; preds = %bb9, %cleanup1
  %16 = load ptr, ptr %2, align 8, !dbg !2826
  %17 = getelementptr inbounds i8, ptr %2, i64 8, !dbg !2826
  %18 = load i32, ptr %17, align 8, !dbg !2826
  %19 = insertvalue { ptr, i32 } poison, ptr %16, 0, !dbg !2826
  %20 = insertvalue { ptr, i32 } %19, i32 %18, 1, !dbg !2826
  resume { ptr, i32 } %20, !dbg !2826

cleanup1:                                         ; preds = %bb6
  %21 = landingpad { ptr, i32 }
          cleanup
  %22 = extractvalue { ptr, i32 } %21, 0
  %23 = extractvalue { ptr, i32 } %21, 1
  store ptr %22, ptr %2, align 8
  %24 = getelementptr inbounds i8, ptr %2, i64 8
  store i32 %23, ptr %24, align 8
  br label %bb10

bb7:                                              ; preds = %bb6
  ret void, !dbg !2827

bb14:                                             ; No predecessors!
  unreachable, !dbg !2826

bb9:                                              ; preds = %bb12, %bb13
; invoke core::ptr::drop_in_place<core::iter::adapters::map::map_fold<usize,i32,(),array_sum::main::{{closure}},core::iter::traits::iterator::Iterator::for_each::call<i32,alloc::vec::Vec<i32>::extend_trusted<core::iter::adapters::map::Map<core::ops::range::Range<usize>,array_sum::main::{{closure}}>>::{{closure}}>::{{closure}}>::{{closure}}>
  invoke void @"_ZN4core3ptr462drop_in_place$LT$core..iter..adapters..map..map_fold$LT$usize$C$i32$C$$LP$$RP$$C$array_sum..main..$u7b$$u7b$closure$u7d$$u7d$$C$core..iter..traits..iterator..Iterator..for_each..call$LT$i32$C$alloc..vec..Vec$LT$i32$GT$..extend_trusted$LT$core..iter..adapters..map..Map$LT$core..ops..range..Range$LT$usize$GT$$C$array_sum..main..$u7b$$u7b$closure$u7d$$u7d$$GT$$GT$..$u7b$$u7b$closure$u7d$$u7d$$GT$..$u7b$$u7b$closure$u7d$$u7d$$GT$..$u7b$$u7b$closure$u7d$$u7d$$GT$17hc8f540e8c148666fE"(ptr align 8 %f) #18
          to label %bb10 unwind label %terminate, !dbg !2819

bb12:                                             ; preds = %bb13
  br label %bb9, !dbg !2819

terminate:                                        ; preds = %bb9
  %25 = landingpad { ptr, i32 }
          filter [0 x ptr] zeroinitializer
  %26 = extractvalue { ptr, i32 } %25, 0
  %27 = extractvalue { ptr, i32 } %25, 1
; call core::panicking::panic_in_cleanup
  call void @_ZN4core9panicking16panic_in_cleanup17h219356accc837b92E() #19, !dbg !2826
  unreachable, !dbg !2826
}

; core::iter::traits::iterator::Iterator::collect
; Function Attrs: inlinehint nonlazybind uwtable
define internal void @_ZN4core4iter6traits8iterator8Iterator7collect17h3d5c1c492e8254bfE(ptr sret([24 x i8]) align 8 %_0, ptr align 8 %self) unnamed_addr #1 !dbg !2828 {
start:
    #dbg_declare(ptr %self, !2832, !DIExpression(), !2836)
; call <alloc::vec::Vec<T> as core::iter::traits::collect::FromIterator<T>>::from_iter
  call void @"_ZN95_$LT$alloc..vec..Vec$LT$T$GT$$u20$as$u20$core..iter..traits..collect..FromIterator$LT$T$GT$$GT$9from_iter17h1db031cf6b037363E"(ptr sret([24 x i8]) align 8 %_0, ptr align 8 %self, ptr align 8 @alloc_1c42992998313cbe7715ffca55c09a5f), !dbg !2837
  ret void, !dbg !2838
}

; core::iter::traits::iterator::Iterator::collect
; Function Attrs: inlinehint nonlazybind uwtable
define internal void @_ZN4core4iter6traits8iterator8Iterator7collect17h5ec3663eac66f92cE(ptr sret([24 x i8]) align 8 %_0, ptr align 8 %self) unnamed_addr #1 !dbg !2839 {
start:
    #dbg_declare(ptr %self, !2843, !DIExpression(), !2847)
; call <alloc::vec::Vec<T> as core::iter::traits::collect::FromIterator<T>>::from_iter
  call void @"_ZN95_$LT$alloc..vec..Vec$LT$T$GT$$u20$as$u20$core..iter..traits..collect..FromIterator$LT$T$GT$$GT$9from_iter17h2c86af489dd02e88E"(ptr sret([24 x i8]) align 8 %_0, ptr align 8 %self, ptr align 8 @alloc_1c42992998313cbe7715ffca55c09a5f), !dbg !2848
  ret void, !dbg !2849
}

; core::iter::traits::iterator::Iterator::for_each
; Function Attrs: inlinehint nonlazybind uwtable
define internal void @_ZN4core4iter6traits8iterator8Iterator8for_each17he3571eda584eb282E(ptr align 8 %self, ptr align 8 %f) unnamed_addr #1 !dbg !2850 {
start:
  %_4 = alloca [24 x i8], align 8
    #dbg_declare(ptr %self, !2854, !DIExpression(), !2858)
    #dbg_declare(ptr %f, !2855, !DIExpression(), !2859)
    #dbg_declare(ptr %f, !2860, !DIExpression(), !2867)
  call void @llvm.memcpy.p0.p0.i64(ptr align 8 %_4, ptr align 8 %f, i64 24, i1 false), !dbg !2869
; call <core::iter::adapters::map::Map<I,F> as core::iter::traits::iterator::Iterator>::fold
  call void @"_ZN102_$LT$core..iter..adapters..map..Map$LT$I$C$F$GT$$u20$as$u20$core..iter..traits..iterator..Iterator$GT$4fold17hae526662f0b0ae2bE"(ptr align 8 %self, ptr align 8 %_4), !dbg !2870
  ret void, !dbg !2871
}

; core::iter::traits::iterator::Iterator::for_each::call::{{closure}}
; Function Attrs: inlinehint nonlazybind uwtable
define internal void @"_ZN4core4iter6traits8iterator8Iterator8for_each4call28_$u7b$$u7b$closure$u7d$$u7d$17h0631a87cce6c85bfE"(ptr align 8 %_1, i32 %item) unnamed_addr #1 !dbg !2872 {
start:
  %item.dbg.spill = alloca [4 x i8], align 4
  %_2.dbg.spill = alloca [0 x i8], align 1
  %_1.dbg.spill = alloca [8 x i8], align 8
  store ptr %_1, ptr %_1.dbg.spill, align 8
    #dbg_declare(ptr %_1.dbg.spill, !2878, !DIExpression(DW_OP_deref), !2880)
    #dbg_declare(ptr %_2.dbg.spill, !2879, !DIExpression(), !2881)
  store i32 %item, ptr %item.dbg.spill, align 4
    #dbg_declare(ptr %item.dbg.spill, !2877, !DIExpression(), !2882)
; call alloc::vec::Vec<T,A>::extend_trusted::{{closure}}
  call void @"_ZN5alloc3vec16Vec$LT$T$C$A$GT$14extend_trusted28_$u7b$$u7b$closure$u7d$$u7d$17h1c12bb388d7e98d1E"(ptr align 8 %_1, i32 %item), !dbg !2883
  ret void, !dbg !2884
}

; core::iter::adapters::map::map_fold::{{closure}}
; Function Attrs: inlinehint nonlazybind uwtable
define internal void @"_ZN4core4iter8adapters3map8map_fold28_$u7b$$u7b$closure$u7d$$u7d$17hced9a8675b4e8084E"(ptr align 8 %_1, i64 %elt) unnamed_addr #1 personality ptr @rust_eh_personality !dbg !2885 {
start:
  %0 = alloca [16 x i8], align 8
  %elt.dbg.spill = alloca [8 x i8], align 8
  %acc.dbg.spill = alloca [0 x i8], align 1
  %_1.dbg.spill = alloca [8 x i8], align 8
  %_10 = alloca [1 x i8], align 1
  store ptr %_1, ptr %_1.dbg.spill, align 8
    #dbg_declare(ptr %_1.dbg.spill, !2892, !DIExpression(DW_OP_deref), !2894)
    #dbg_declare(ptr %_1.dbg.spill, !2893, !DIExpression(DW_OP_deref, DW_OP_plus_uconst, 24), !2895)
    #dbg_declare(ptr %acc.dbg.spill, !2890, !DIExpression(), !2896)
  store i64 %elt, ptr %elt.dbg.spill, align 8
    #dbg_declare(ptr %elt.dbg.spill, !2891, !DIExpression(), !2897)
  store i8 1, ptr %_10, align 1, !dbg !2898
  %_8 = getelementptr inbounds i8, ptr %_1, i64 24, !dbg !2899
; invoke array_sum::main::{{closure}}
  %_7 = invoke i32 @"_ZN9array_sum4main28_$u7b$$u7b$closure$u7d$$u7d$17h9e82c246840efa02E"(ptr align 8 %_8, i64 %elt)
          to label %bb1 unwind label %cleanup, !dbg !2899

bb5:                                              ; preds = %cleanup
  %1 = load i8, ptr %_10, align 1, !dbg !2900
  %2 = trunc i8 %1 to i1, !dbg !2900
  br i1 %2, label %bb4, label %bb3, !dbg !2900

cleanup:                                          ; preds = %bb1, %start
  %3 = landingpad { ptr, i32 }
          cleanup
  %4 = extractvalue { ptr, i32 } %3, 0
  %5 = extractvalue { ptr, i32 } %3, 1
  store ptr %4, ptr %0, align 8
  %6 = getelementptr inbounds i8, ptr %0, i64 8
  store i32 %5, ptr %6, align 8
  br label %bb5

bb1:                                              ; preds = %start
  store i8 0, ptr %_10, align 1, !dbg !2901
; invoke core::iter::traits::iterator::Iterator::for_each::call::{{closure}}
  invoke void @"_ZN4core4iter6traits8iterator8Iterator8for_each4call28_$u7b$$u7b$closure$u7d$$u7d$17h0631a87cce6c85bfE"(ptr align 8 %_1, i32 %_7)
          to label %bb2 unwind label %cleanup, !dbg !2901

bb2:                                              ; preds = %bb1
  ret void, !dbg !2902

bb3:                                              ; preds = %bb4, %bb5
  %7 = load ptr, ptr %0, align 8, !dbg !2903
  %8 = getelementptr inbounds i8, ptr %0, i64 8, !dbg !2903
  %9 = load i32, ptr %8, align 8, !dbg !2903
  %10 = insertvalue { ptr, i32 } poison, ptr %7, 0, !dbg !2903
  %11 = insertvalue { ptr, i32 } %10, i32 %9, 1, !dbg !2903
  resume { ptr, i32 } %11, !dbg !2903

bb4:                                              ; preds = %bb5
  br label %bb3, !dbg !2900
}

; core::slice::raw::from_raw_parts::precondition_check
; Function Attrs: inlinehint nounwind nonlazybind uwtable
define internal void @_ZN4core5slice3raw14from_raw_parts18precondition_check17h9deebabb14a3bb07E(ptr %data, i64 %size, i64 %align, i64 %len) unnamed_addr #4 personality ptr @rust_eh_personality !dbg !2904 {
start:
  %ptr.dbg.spill2 = alloca [8 x i8], align 8
  %0 = alloca [4 x i8], align 4
  %ptr.dbg.spill = alloca [8 x i8], align 8
  %pieces.dbg.spill = alloca [8 x i8], align 8
  %is_zst.dbg.spill1 = alloca [1 x i8], align 1
  %is_zst.dbg.spill = alloca [1 x i8], align 1
  %len.dbg.spill = alloca [8 x i8], align 8
  %align.dbg.spill = alloca [8 x i8], align 8
  %size.dbg.spill = alloca [8 x i8], align 8
  %data.dbg.spill = alloca [8 x i8], align 8
  %max_len = alloca [8 x i8], align 8
  %_11 = alloca [48 x i8], align 8
  store ptr %data, ptr %data.dbg.spill, align 8
    #dbg_declare(ptr %data.dbg.spill, !2911, !DIExpression(), !2915)
  store i64 %size, ptr %size.dbg.spill, align 8
    #dbg_declare(ptr %size.dbg.spill, !2912, !DIExpression(), !2915)
    #dbg_declare(ptr %size.dbg.spill, !2916, !DIExpression(), !2925)
  store i64 %align, ptr %align.dbg.spill, align 8
    #dbg_declare(ptr %align.dbg.spill, !2913, !DIExpression(), !2915)
    #dbg_declare(ptr %align.dbg.spill, !2929, !DIExpression(), !2936)
    #dbg_declare(ptr %align.dbg.spill, !2938, !DIExpression(), !2944)
    #dbg_declare(ptr %align.dbg.spill, !2947, !DIExpression(), !2953)
    #dbg_declare(ptr %align.dbg.spill, !2956, !DIExpression(), !2961)
    #dbg_declare(ptr %align.dbg.spill, !2963, !DIExpression(), !2966)
  store i64 %len, ptr %len.dbg.spill, align 8
    #dbg_declare(ptr %len.dbg.spill, !2914, !DIExpression(), !2915)
    #dbg_declare(ptr %len.dbg.spill, !2922, !DIExpression(), !2968)
    #dbg_declare(ptr %max_len, !2923, !DIExpression(), !2969)
  store i8 0, ptr %is_zst.dbg.spill, align 1, !dbg !2970
    #dbg_declare(ptr %is_zst.dbg.spill, !2935, !DIExpression(), !2970)
  store i8 0, ptr %is_zst.dbg.spill1, align 1, !dbg !2944
    #dbg_declare(ptr %is_zst.dbg.spill1, !2943, !DIExpression(), !2944)
  store ptr @alloc_e92e94d0ff530782b571cfd99ec66aef, ptr %pieces.dbg.spill, align 8, !dbg !2971
    #dbg_declare(ptr %pieces.dbg.spill, !2974, !DIExpression(), !2971)
  store ptr %data, ptr %ptr.dbg.spill, align 8, !dbg !2976
    #dbg_declare(ptr %ptr.dbg.spill, !2934, !DIExpression(), !2977)
    #dbg_declare(ptr %ptr.dbg.spill, !2942, !DIExpression(), !2944)
    #dbg_declare(ptr %ptr.dbg.spill, !2952, !DIExpression(), !2978)
    #dbg_declare(ptr %ptr.dbg.spill, !2979, !DIExpression(), !2984)
    #dbg_declare(ptr %ptr.dbg.spill, !2986, !DIExpression(), !2993)
    #dbg_declare(ptr %ptr.dbg.spill, !2995, !DIExpression(), !3002)
  %1 = call i64 @llvm.ctpop.i64(i64 %align), !dbg !3004
  %2 = trunc i64 %1 to i32, !dbg !3004
  store i32 %2, ptr %0, align 4, !dbg !3004
  %_15 = load i32, ptr %0, align 4, !dbg !3004
  %3 = icmp eq i32 %_15, 1, !dbg !3005
  br i1 %3, label %bb8, label %bb9, !dbg !3005

bb8:                                              ; preds = %start
  %_13 = ptrtoint ptr %data to i64, !dbg !3006
  %_14 = sub i64 %align, 1, !dbg !3007
  %_12 = and i64 %_13, %_14, !dbg !3008
  %4 = icmp eq i64 %_12, 0, !dbg !3009
  br i1 %4, label %bb6, label %bb7, !dbg !3009

bb9:                                              ; preds = %start
  store ptr @alloc_e92e94d0ff530782b571cfd99ec66aef, ptr %_11, align 8, !dbg !3010
  %5 = getelementptr inbounds i8, ptr %_11, i64 8, !dbg !3010
  store i64 1, ptr %5, align 8, !dbg !3010
  %6 = load ptr, ptr @0, align 8, !dbg !3010
  %7 = load i64, ptr getelementptr inbounds (i8, ptr @0, i64 8), align 8, !dbg !3010
  %8 = getelementptr inbounds i8, ptr %_11, i64 32, !dbg !3010
  store ptr %6, ptr %8, align 8, !dbg !3010
  %9 = getelementptr inbounds i8, ptr %8, i64 8, !dbg !3010
  store i64 %7, ptr %9, align 8, !dbg !3010
  %10 = getelementptr inbounds i8, ptr %_11, i64 16, !dbg !3010
  store ptr inttoptr (i64 8 to ptr), ptr %10, align 8, !dbg !3010
  %11 = getelementptr inbounds i8, ptr %10, i64 8, !dbg !3010
  store i64 0, ptr %11, align 8, !dbg !3010
; invoke core::panicking::panic_fmt
  invoke void @_ZN4core9panicking9panic_fmt17h74866b78e934b1c0E(ptr align 8 %_11, ptr align 8 @alloc_868b3c2f5328c5aeda6cf9c93e10b7e9) #17
          to label %unreachable unwind label %terminate, !dbg !2975

bb6:                                              ; preds = %bb8
  store ptr %data, ptr %ptr.dbg.spill2, align 8, !dbg !3011
    #dbg_declare(ptr %ptr.dbg.spill2, !3000, !DIExpression(), !3012)
    #dbg_declare(ptr %ptr.dbg.spill2, !3013, !DIExpression(), !3019)
    #dbg_declare(ptr %ptr.dbg.spill2, !3023, !DIExpression(), !3028)
    #dbg_declare(ptr %ptr.dbg.spill2, !3031, !DIExpression(), !3037)
  %_9 = icmp eq i64 %_13, 0, !dbg !3040
  %_5 = xor i1 %_9, true, !dbg !3041
  br i1 %_5, label %bb1, label %bb4, !dbg !2937

bb7:                                              ; preds = %bb8
  br label %bb4, !dbg !2937

bb4:                                              ; preds = %bb7, %bb6
  br label %bb5, !dbg !3042

bb1:                                              ; preds = %bb6
  %_20 = icmp eq i64 %size, 0, !dbg !3044
  %12 = icmp eq i64 %size, 0, !dbg !3044
  br i1 %12, label %bb11, label %bb12, !dbg !3044

bb11:                                             ; preds = %bb1
  store i64 -1, ptr %max_len, align 8, !dbg !3045
  br label %bb14, !dbg !3046

bb12:                                             ; preds = %bb1
  br i1 %_20, label %panic, label %bb13, !dbg !3047

bb14:                                             ; preds = %bb13, %bb11
  %_21 = load i64, ptr %max_len, align 8, !dbg !3048
  %_7 = icmp ule i64 %len, %_21, !dbg !3049
  br i1 %_7, label %bb2, label %bb3, !dbg !2926

bb13:                                             ; preds = %bb12
  %13 = udiv i64 9223372036854775807, %size, !dbg !3047
  store i64 %13, ptr %max_len, align 8, !dbg !3047
  br label %bb14, !dbg !3046

panic:                                            ; preds = %bb12
; invoke core::panicking::panic_const::panic_const_div_by_zero
  invoke void @_ZN4core9panicking11panic_const23panic_const_div_by_zero17h97698cf212758376E(ptr align 8 @alloc_961d229a97eb253004ac7eff9079dfa9) #17
          to label %unreachable unwind label %terminate, !dbg !3047

terminate:                                        ; preds = %bb9, %panic
  %14 = landingpad { ptr, i32 }
          filter [0 x ptr] zeroinitializer
  %15 = extractvalue { ptr, i32 } %14, 0
  %16 = extractvalue { ptr, i32 } %14, 1
; call core::panicking::panic_cannot_unwind
  call void @_ZN4core9panicking19panic_cannot_unwind17h17e80b89bebc054fE() #19, !dbg !3050
  unreachable, !dbg !3050

unreachable:                                      ; preds = %bb9, %panic
  unreachable

bb3:                                              ; preds = %bb14
  br label %bb5, !dbg !3042

bb2:                                              ; preds = %bb14
  ret void, !dbg !3051

bb5:                                              ; preds = %bb4, %bb3
; call core::panicking::panic_nounwind
  call void @_ZN4core9panicking14panic_nounwind17hfc854da59c4c7125E(ptr align 1 @alloc_11195730e5236cfdc15ea13be1c301f9, i64 162) #20, !dbg !3052
  unreachable, !dbg !3052
}

; core::result::Result<T,E>::unwrap_or_else
; Function Attrs: inlinehint nonlazybind uwtable
define internal i64 @"_ZN4core6result19Result$LT$T$C$E$GT$14unwrap_or_else17hb9b3de979f1da5d5E"(ptr align 8 %self, ptr align 8 %0) unnamed_addr #1 !dbg !3053 {
start:
  %e.dbg.spill = alloca [1 x i8], align 1
  %t.dbg.spill = alloca [8 x i8], align 8
  %op.dbg.spill = alloca [0 x i8], align 1
  %_0 = alloca [8 x i8], align 8
    #dbg_declare(ptr %self, !3062, !DIExpression(), !3068)
    #dbg_declare(ptr %op.dbg.spill, !3063, !DIExpression(), !3069)
  %1 = load i8, ptr %self, align 8, !dbg !3070
  %2 = trunc i8 %1 to i1, !dbg !3070
  %_3 = zext i1 %2 to i64, !dbg !3070
  %3 = icmp eq i64 %_3, 0, !dbg !3071
  br i1 %3, label %bb3, label %bb2, !dbg !3071

bb3:                                              ; preds = %start
  %4 = getelementptr inbounds i8, ptr %self, i64 8, !dbg !3072
  %t = load i64, ptr %4, align 8, !dbg !3072
  store i64 %t, ptr %t.dbg.spill, align 8, !dbg !3072
    #dbg_declare(ptr %t.dbg.spill, !3064, !DIExpression(), !3073)
  store i64 %t, ptr %_0, align 8, !dbg !3074
  br label %bb5, !dbg !3075

bb2:                                              ; preds = %start
  %5 = getelementptr inbounds i8, ptr %self, i64 1, !dbg !3076
  %e = load i8, ptr %5, align 1, !dbg !3076
  store i8 %e, ptr %e.dbg.spill, align 1, !dbg !3076
    #dbg_declare(ptr %e.dbg.spill, !3066, !DIExpression(), !3077)
; call array_sum::main::{{closure}}
  %6 = call i64 @"_ZN9array_sum4main28_$u7b$$u7b$closure$u7d$$u7d$17h713322c2f91502e6E"(i8 %e), !dbg !3078
  store i64 %6, ptr %_0, align 8, !dbg !3078
  br label %bb5, !dbg !3079

bb5:                                              ; preds = %bb2, %bb3
  %7 = load i64, ptr %_0, align 8, !dbg !3080
  ret i64 %7, !dbg !3080

bb1:                                              ; No predecessors!
  unreachable, !dbg !3070
}

; core::panicking::assert_failed
; Function Attrs: cold minsize noinline noreturn nonlazybind optsize uwtable
define internal void @_ZN4core9panicking13assert_failed17h85db1ef1f7971c50E(i8 %kind, ptr align 8 %0, ptr align 8 %1, ptr align 8 %args, ptr align 8 %2) unnamed_addr #5 !dbg !3081 {
start:
  %kind.dbg.spill = alloca [1 x i8], align 1
  %right = alloca [8 x i8], align 8
  %left = alloca [8 x i8], align 8
  store ptr %0, ptr %left, align 8
  store ptr %1, ptr %right, align 8
  store i8 %kind, ptr %kind.dbg.spill, align 1
    #dbg_declare(ptr %kind.dbg.spill, !3099, !DIExpression(), !3105)
    #dbg_declare(ptr %left, !3100, !DIExpression(), !3106)
    #dbg_declare(ptr %right, !3101, !DIExpression(), !3107)
    #dbg_declare(ptr %args, !3102, !DIExpression(), !3108)
; call core::panicking::assert_failed_inner
  call void @_ZN4core9panicking19assert_failed_inner17h096c85975a183618E(i8 %kind, ptr align 1 %left, ptr align 8 @vtable.1, ptr align 1 %right, ptr align 8 @vtable.1, ptr align 8 %args, ptr align 8 %2) #17, !dbg !3109
  unreachable, !dbg !3109
}

; rand::distributions::integer::<impl rand::distributions::distribution::Distribution<i32> for rand::distributions::Standard>::sample
; Function Attrs: inlinehint nonlazybind uwtable
define internal i32 @"_ZN4rand13distributions7integer118_$LT$impl$u20$rand..distributions..distribution..Distribution$LT$i32$GT$$u20$for$u20$rand..distributions..Standard$GT$6sample17h3a214bde570d6ad7E"(ptr align 1 %self, ptr align 8 %rng) unnamed_addr #1 !dbg !3110 {
start:
  %rng.dbg.spill = alloca [8 x i8], align 8
  %self.dbg.spill = alloca [8 x i8], align 8
  store ptr %self, ptr %self.dbg.spill, align 8
    #dbg_declare(ptr %self.dbg.spill, !3119, !DIExpression(), !3122)
  store ptr %rng, ptr %rng.dbg.spill, align 8
    #dbg_declare(ptr %rng.dbg.spill, !3120, !DIExpression(), !3123)
; call rand::rng::Rng::gen
  %_3 = call i32 @_ZN4rand3rng3Rng3gen17h99ca3cd61c230601E(ptr align 8 %rng), !dbg !3124
  ret i32 %_3, !dbg !3125
}

; rand::distributions::integer::<impl rand::distributions::distribution::Distribution<u32> for rand::distributions::Standard>::sample
; Function Attrs: inlinehint nonlazybind uwtable
define internal i32 @"_ZN4rand13distributions7integer118_$LT$impl$u20$rand..distributions..distribution..Distribution$LT$u32$GT$$u20$for$u20$rand..distributions..Standard$GT$6sample17h363b6386c32ad231E"(ptr align 1 %self, ptr align 8 %rng) unnamed_addr #1 !dbg !3126 {
start:
  %self.dbg.spill.i3 = alloca [8 x i8], align 8
  %self.dbg.spill4.i = alloca [8 x i8], align 8
  %self.dbg.spill3.i = alloca [8 x i8], align 8
  %self.dbg.spill1.i = alloca [8 x i8], align 8
  %self.dbg.spill.i1 = alloca [8 x i8], align 8
  %self.dbg.spill.i.i = alloca [8 x i8], align 8
  %rng.dbg.spill.i = alloca [8 x i8], align 8
  %self.dbg.spill.i = alloca [8 x i8], align 8
  %rng.dbg.spill = alloca [8 x i8], align 8
  %self.dbg.spill = alloca [8 x i8], align 8
  store ptr %self, ptr %self.dbg.spill, align 8
    #dbg_declare(ptr %self.dbg.spill, !3131, !DIExpression(), !3133)
  store ptr %rng, ptr %rng.dbg.spill, align 8
    #dbg_declare(ptr %rng.dbg.spill, !3132, !DIExpression(), !3134)
  store ptr %rng, ptr %self.dbg.spill.i, align 8
    #dbg_declare(ptr %self.dbg.spill.i, !3135, !DIExpression(), !3145)
  store ptr %rng, ptr %self.dbg.spill.i1, align 8
    #dbg_declare(ptr %self.dbg.spill.i1, !3147, !DIExpression(), !3156)
    #dbg_declare(ptr %self.dbg.spill.i1, !3158, !DIExpression(), !3165)
  store ptr %rng, ptr %self.dbg.spill1.i, align 8, !dbg !3167
    #dbg_declare(ptr %self.dbg.spill1.i, !3168, !DIExpression(), !3175)
  %self2.i = load ptr, ptr %rng, align 8, !dbg !3177
  store ptr %self2.i, ptr %self.dbg.spill3.i, align 8, !dbg !3177
    #dbg_declare(ptr %self.dbg.spill3.i, !3178, !DIExpression(), !3185)
  store ptr %self2.i, ptr %self.dbg.spill4.i, align 8, !dbg !3187
    #dbg_declare(ptr %self.dbg.spill4.i, !3188, !DIExpression(), !3196)
  %_0.i2 = getelementptr inbounds i8, ptr %self2.i, i64 16, !dbg !3198
  store ptr %_0.i2, ptr %self.dbg.spill.i.i, align 8
    #dbg_declare(ptr %self.dbg.spill.i.i, !3199, !DIExpression(), !3207)
  store ptr %_0.i2, ptr %rng.dbg.spill.i, align 8, !dbg !3209
    #dbg_declare(ptr %rng.dbg.spill.i, !3142, !DIExpression(), !3210)
  store ptr %_0.i2, ptr %self.dbg.spill.i3, align 8
    #dbg_declare(ptr %self.dbg.spill.i3, !3211, !DIExpression(), !3218)
; call <rand_core::block::BlockRng<R> as rand_core::RngCore>::next_u32
  %_0.i4 = call i32 @"_ZN74_$LT$rand_core..block..BlockRng$LT$R$GT$$u20$as$u20$rand_core..RngCore$GT$8next_u3217h54f8b3566a846872E"(ptr align 16 %_0.i2), !dbg !3220
  ret i32 %_0.i4, !dbg !3221
}

; rand::distributions::integer::<impl rand::distributions::distribution::Distribution<usize> for rand::distributions::Standard>::sample
; Function Attrs: inlinehint nonlazybind uwtable
define internal i64 @"_ZN4rand13distributions7integer120_$LT$impl$u20$rand..distributions..distribution..Distribution$LT$usize$GT$$u20$for$u20$rand..distributions..Standard$GT$6sample17h499157f045635165E"(ptr align 1 %self, ptr align 8 %rng) unnamed_addr #1 !dbg !3222 {
start:
  %self.dbg.spill.i3 = alloca [8 x i8], align 8
  %self.dbg.spill4.i = alloca [8 x i8], align 8
  %self.dbg.spill3.i = alloca [8 x i8], align 8
  %self.dbg.spill1.i = alloca [8 x i8], align 8
  %self.dbg.spill.i1 = alloca [8 x i8], align 8
  %self.dbg.spill.i.i = alloca [8 x i8], align 8
  %rng.dbg.spill.i = alloca [8 x i8], align 8
  %self.dbg.spill.i = alloca [8 x i8], align 8
  %rng.dbg.spill = alloca [8 x i8], align 8
  %self.dbg.spill = alloca [8 x i8], align 8
  store ptr %self, ptr %self.dbg.spill, align 8
    #dbg_declare(ptr %self.dbg.spill, !3227, !DIExpression(), !3229)
  store ptr %rng, ptr %rng.dbg.spill, align 8
    #dbg_declare(ptr %rng.dbg.spill, !3228, !DIExpression(), !3230)
  store ptr %rng, ptr %self.dbg.spill.i, align 8
    #dbg_declare(ptr %self.dbg.spill.i, !3231, !DIExpression(), !3238)
  store ptr %rng, ptr %self.dbg.spill.i1, align 8
    #dbg_declare(ptr %self.dbg.spill.i1, !3147, !DIExpression(), !3240)
    #dbg_declare(ptr %self.dbg.spill.i1, !3158, !DIExpression(), !3242)
  store ptr %rng, ptr %self.dbg.spill1.i, align 8, !dbg !3244
    #dbg_declare(ptr %self.dbg.spill1.i, !3168, !DIExpression(), !3245)
  %self2.i = load ptr, ptr %rng, align 8, !dbg !3247
  store ptr %self2.i, ptr %self.dbg.spill3.i, align 8, !dbg !3247
    #dbg_declare(ptr %self.dbg.spill3.i, !3178, !DIExpression(), !3248)
  store ptr %self2.i, ptr %self.dbg.spill4.i, align 8, !dbg !3250
    #dbg_declare(ptr %self.dbg.spill4.i, !3188, !DIExpression(), !3251)
  %_0.i2 = getelementptr inbounds i8, ptr %self2.i, i64 16, !dbg !3253
  store ptr %_0.i2, ptr %self.dbg.spill.i.i, align 8
    #dbg_declare(ptr %self.dbg.spill.i.i, !3199, !DIExpression(), !3254)
  store ptr %_0.i2, ptr %rng.dbg.spill.i, align 8, !dbg !3256
    #dbg_declare(ptr %rng.dbg.spill.i, !3236, !DIExpression(), !3257)
  store ptr %_0.i2, ptr %self.dbg.spill.i3, align 8
    #dbg_declare(ptr %self.dbg.spill.i3, !3258, !DIExpression(), !3263)
; call <rand_core::block::BlockRng<R> as rand_core::RngCore>::next_u64
  %_0.i4 = call i64 @"_ZN74_$LT$rand_core..block..BlockRng$LT$R$GT$$u20$as$u20$rand_core..RngCore$GT$8next_u6417h3671c272d025656fE"(ptr align 16 %_0.i2), !dbg !3265
  ret i64 %_0.i4, !dbg !3266
}

; rand::rng::Rng::gen
; Function Attrs: inlinehint nonlazybind uwtable
define internal i64 @_ZN4rand3rng3Rng3gen17h467b59588fbc3575E(ptr align 8 %self) unnamed_addr #1 !dbg !3267 {
start:
  %self.dbg.spill = alloca [8 x i8], align 8
  store ptr %self, ptr %self.dbg.spill, align 8
    #dbg_declare(ptr %self.dbg.spill, !3274, !DIExpression(), !3277)
; call rand::distributions::integer::<impl rand::distributions::distribution::Distribution<usize> for rand::distributions::Standard>::sample
  %_0 = call i64 @"_ZN4rand13distributions7integer120_$LT$impl$u20$rand..distributions..distribution..Distribution$LT$usize$GT$$u20$for$u20$rand..distributions..Standard$GT$6sample17h499157f045635165E"(ptr align 1 inttoptr (i64 1 to ptr), ptr align 8 %self), !dbg !3278
  ret i64 %_0, !dbg !3279
}

; rand::rng::Rng::gen
; Function Attrs: inlinehint nonlazybind uwtable
define internal i32 @_ZN4rand3rng3Rng3gen17h99ca3cd61c230601E(ptr align 8 %self) unnamed_addr #1 !dbg !3280 {
start:
  %self.dbg.spill = alloca [8 x i8], align 8
  store ptr %self, ptr %self.dbg.spill, align 8
    #dbg_declare(ptr %self.dbg.spill, !3282, !DIExpression(), !3284)
; call rand::distributions::integer::<impl rand::distributions::distribution::Distribution<u32> for rand::distributions::Standard>::sample
  %_0 = call i32 @"_ZN4rand13distributions7integer118_$LT$impl$u20$rand..distributions..distribution..Distribution$LT$u32$GT$$u20$for$u20$rand..distributions..Standard$GT$6sample17h363b6386c32ad231E"(ptr align 1 inttoptr (i64 1 to ptr), ptr align 8 %self), !dbg !3285
  ret i32 %_0, !dbg !3286
}

; rand::rng::Rng::gen
; Function Attrs: inlinehint nonlazybind uwtable
define internal i32 @_ZN4rand3rng3Rng3gen17hff2fb9f641c9e70dE(ptr align 8 %self) unnamed_addr #1 !dbg !3287 {
start:
  %self.dbg.spill = alloca [8 x i8], align 8
  store ptr %self, ptr %self.dbg.spill, align 8
    #dbg_declare(ptr %self.dbg.spill, !3291, !DIExpression(), !3293)
; call rand::distributions::integer::<impl rand::distributions::distribution::Distribution<i32> for rand::distributions::Standard>::sample
  %_0 = call i32 @"_ZN4rand13distributions7integer118_$LT$impl$u20$rand..distributions..distribution..Distribution$LT$i32$GT$$u20$for$u20$rand..distributions..Standard$GT$6sample17h3a214bde570d6ad7E"(ptr align 1 inttoptr (i64 1 to ptr), ptr align 8 %self), !dbg !3294
  ret i32 %_0, !dbg !3295
}

; rand::rng::Rng::gen_range
; Function Attrs: nonlazybind uwtable
define internal i64 @_ZN4rand3rng3Rng9gen_range17h1fb584fe0f0e3503E(ptr align 8 %self, i64 %0, i64 %1) unnamed_addr #0 personality ptr @rust_eh_personality !dbg !3296 {
start:
  %2 = alloca [16 x i8], align 8
  %self.dbg.spill = alloca [8 x i8], align 8
  %_7 = alloca [1 x i8], align 1
  %range = alloca [16 x i8], align 8
  store i64 %0, ptr %range, align 8
  %3 = getelementptr inbounds i8, ptr %range, i64 8
  store i64 %1, ptr %3, align 8
  store ptr %self, ptr %self.dbg.spill, align 8
    #dbg_declare(ptr %self.dbg.spill, !3300, !DIExpression(), !3304)
    #dbg_declare(ptr %range, !3301, !DIExpression(), !3305)
  store i8 0, ptr %_7, align 1, !dbg !3306
  store i8 1, ptr %_7, align 1, !dbg !3306
; invoke <core::ops::range::Range<T> as rand::distributions::uniform::SampleRange<T>>::is_empty
  %_3 = invoke zeroext i1 @"_ZN103_$LT$core..ops..range..Range$LT$T$GT$$u20$as$u20$rand..distributions..uniform..SampleRange$LT$T$GT$$GT$8is_empty17h9ad9b146c2a6f5feE"(ptr align 8 %range)
          to label %bb1 unwind label %cleanup, !dbg !3307

bb7:                                              ; preds = %cleanup
  %4 = load i8, ptr %_7, align 1, !dbg !3308
  %5 = trunc i8 %4 to i1, !dbg !3308
  br i1 %5, label %bb6, label %bb5, !dbg !3308

cleanup:                                          ; preds = %bb2, %bb3, %start
  %6 = landingpad { ptr, i32 }
          cleanup
  %7 = extractvalue { ptr, i32 } %6, 0
  %8 = extractvalue { ptr, i32 } %6, 1
  store ptr %7, ptr %2, align 8
  %9 = getelementptr inbounds i8, ptr %2, i64 8
  store i32 %8, ptr %9, align 8
  br label %bb7

bb1:                                              ; preds = %start
  br i1 %_3, label %bb2, label %bb3, !dbg !3307

bb3:                                              ; preds = %bb1
  store i8 0, ptr %_7, align 1, !dbg !3309
  %_6.0 = load i64, ptr %range, align 8, !dbg !3309
  %10 = getelementptr inbounds i8, ptr %range, i64 8, !dbg !3309
  %_6.1 = load i64, ptr %10, align 8, !dbg !3309
; invoke <core::ops::range::Range<T> as rand::distributions::uniform::SampleRange<T>>::sample_single
  %_0 = invoke i64 @"_ZN103_$LT$core..ops..range..Range$LT$T$GT$$u20$as$u20$rand..distributions..uniform..SampleRange$LT$T$GT$$GT$13sample_single17hb3e5b5d0a88884d8E"(i64 %_6.0, i64 %_6.1, ptr align 8 %self)
          to label %bb4 unwind label %cleanup, !dbg !3309

bb2:                                              ; preds = %bb1
; invoke core::panicking::panic
  invoke void @_ZN4core9panicking5panic17h95d8269cf8bd4f7aE(ptr align 1 @alloc_da16f3811c01dd681e4b4fd5bd2b8133, i64 25, ptr align 8 @alloc_9cd229247c449f942408081886624a2d) #17
          to label %unreachable unwind label %cleanup, !dbg !3306

bb4:                                              ; preds = %bb3
  ret i64 %_0, !dbg !3310

unreachable:                                      ; preds = %bb2
  unreachable

bb5:                                              ; preds = %bb6, %bb7
  %11 = load ptr, ptr %2, align 8, !dbg !3311
  %12 = getelementptr inbounds i8, ptr %2, i64 8, !dbg !3311
  %13 = load i32, ptr %12, align 8, !dbg !3311
  %14 = insertvalue { ptr, i32 } poison, ptr %11, 0, !dbg !3311
  %15 = insertvalue { ptr, i32 } %14, i32 %13, 1, !dbg !3311
  resume { ptr, i32 } %15, !dbg !3311

bb6:                                              ; preds = %bb7
  br label %bb5, !dbg !3308
}

; rand::rng::Rng::gen_range
; Function Attrs: nonlazybind uwtable
define internal i32 @_ZN4rand3rng3Rng9gen_range17h5db0e44a2ee9818cE(ptr align 8 %self, i32 %0, i32 %1) unnamed_addr #0 personality ptr @rust_eh_personality !dbg !3312 {
start:
  %2 = alloca [16 x i8], align 8
  %self.dbg.spill = alloca [8 x i8], align 8
  %_7 = alloca [1 x i8], align 1
  %range = alloca [8 x i8], align 4
  store i32 %0, ptr %range, align 4
  %3 = getelementptr inbounds i8, ptr %range, i64 4
  store i32 %1, ptr %3, align 4
  store ptr %self, ptr %self.dbg.spill, align 8
    #dbg_declare(ptr %self.dbg.spill, !3316, !DIExpression(), !3320)
    #dbg_declare(ptr %range, !3317, !DIExpression(), !3321)
  store i8 0, ptr %_7, align 1, !dbg !3322
  store i8 1, ptr %_7, align 1, !dbg !3322
; invoke <core::ops::range::Range<T> as rand::distributions::uniform::SampleRange<T>>::is_empty
  %_3 = invoke zeroext i1 @"_ZN103_$LT$core..ops..range..Range$LT$T$GT$$u20$as$u20$rand..distributions..uniform..SampleRange$LT$T$GT$$GT$8is_empty17h99dfb11862fb21d3E"(ptr align 4 %range)
          to label %bb1 unwind label %cleanup, !dbg !3323

bb7:                                              ; preds = %cleanup
  %4 = load i8, ptr %_7, align 1, !dbg !3324
  %5 = trunc i8 %4 to i1, !dbg !3324
  br i1 %5, label %bb6, label %bb5, !dbg !3324

cleanup:                                          ; preds = %bb2, %bb3, %start
  %6 = landingpad { ptr, i32 }
          cleanup
  %7 = extractvalue { ptr, i32 } %6, 0
  %8 = extractvalue { ptr, i32 } %6, 1
  store ptr %7, ptr %2, align 8
  %9 = getelementptr inbounds i8, ptr %2, i64 8
  store i32 %8, ptr %9, align 8
  br label %bb7

bb1:                                              ; preds = %start
  br i1 %_3, label %bb2, label %bb3, !dbg !3323

bb3:                                              ; preds = %bb1
  store i8 0, ptr %_7, align 1, !dbg !3325
  %_6.0 = load i32, ptr %range, align 4, !dbg !3325
  %10 = getelementptr inbounds i8, ptr %range, i64 4, !dbg !3325
  %_6.1 = load i32, ptr %10, align 4, !dbg !3325
; invoke <core::ops::range::Range<T> as rand::distributions::uniform::SampleRange<T>>::sample_single
  %_0 = invoke i32 @"_ZN103_$LT$core..ops..range..Range$LT$T$GT$$u20$as$u20$rand..distributions..uniform..SampleRange$LT$T$GT$$GT$13sample_single17hb9a484cf90283be4E"(i32 %_6.0, i32 %_6.1, ptr align 8 %self)
          to label %bb4 unwind label %cleanup, !dbg !3325

bb2:                                              ; preds = %bb1
; invoke core::panicking::panic
  invoke void @_ZN4core9panicking5panic17h95d8269cf8bd4f7aE(ptr align 1 @alloc_da16f3811c01dd681e4b4fd5bd2b8133, i64 25, ptr align 8 @alloc_9cd229247c449f942408081886624a2d) #17
          to label %unreachable unwind label %cleanup, !dbg !3322

bb4:                                              ; preds = %bb3
  ret i32 %_0, !dbg !3326

unreachable:                                      ; preds = %bb2
  unreachable

bb5:                                              ; preds = %bb6, %bb7
  %11 = load ptr, ptr %2, align 8, !dbg !3327
  %12 = getelementptr inbounds i8, ptr %2, i64 8, !dbg !3327
  %13 = load i32, ptr %12, align 8, !dbg !3327
  %14 = insertvalue { ptr, i32 } poison, ptr %11, 0, !dbg !3327
  %15 = insertvalue { ptr, i32 } %14, i32 %13, 1, !dbg !3327
  resume { ptr, i32 } %15, !dbg !3327

bb6:                                              ; preds = %bb7
  br label %bb5, !dbg !3324
}

; <() as std::process::Termination>::report
; Function Attrs: inlinehint nonlazybind uwtable
define internal i8 @"_ZN54_$LT$$LP$$RP$$u20$as$u20$std..process..Termination$GT$6report17h14d684c4a5727126E"() unnamed_addr #1 !dbg !3328 {
start:
  %self.dbg.spill = alloca [0 x i8], align 1
  %_1.dbg.spill = alloca [0 x i8], align 1
    #dbg_declare(ptr %_1.dbg.spill, !3334, !DIExpression(), !3335)
    #dbg_declare(ptr %self.dbg.spill, !3333, !DIExpression(), !3335)
  ret i8 0, !dbg !3336
}

; alloc::vec::Vec<T,A>::extend_trusted
; Function Attrs: nonlazybind uwtable
define internal void @"_ZN5alloc3vec16Vec$LT$T$C$A$GT$14extend_trusted17hd148aebc4056668eE"(ptr align 8 %self, ptr align 8 %iterator, ptr align 8 %0) unnamed_addr #0 personality ptr @rust_eh_personality !dbg !3337 {
start:
  %local_len.dbg.spill = alloca [16 x i8], align 8
  %len.dbg.spill = alloca [8 x i8], align 8
  %ptr.dbg.spill = alloca [8 x i8], align 8
  %self.dbg.spill6 = alloca [8 x i8], align 8
  %self.dbg.spill5 = alloca [8 x i8], align 8
  %self.dbg.spill3 = alloca [8 x i8], align 8
  %self.dbg.spill2 = alloca [8 x i8], align 8
  %additional.dbg.spill = alloca [8 x i8], align 8
  %low.dbg.spill = alloca [8 x i8], align 8
  %1 = alloca [16 x i8], align 8
  %pieces.dbg.spill1 = alloca [8 x i8], align 8
  %pieces.dbg.spill = alloca [8 x i8], align 8
  %kind.dbg.spill = alloca [1 x i8], align 1
  %self.dbg.spill = alloca [8 x i8], align 8
  %_22 = alloca [1 x i8], align 1
  %_21 = alloca [48 x i8], align 8
  %_19 = alloca [24 x i8], align 8
  %_18 = alloca [24 x i8], align 8
  %_5 = alloca [24 x i8], align 8
  %high = alloca [16 x i8], align 8
  store ptr %self, ptr %self.dbg.spill, align 8
    #dbg_declare(ptr %self.dbg.spill, !3345, !DIExpression(), !3363)
    #dbg_declare(ptr %self.dbg.spill, !3364, !DIExpression(), !3370)
    #dbg_declare(ptr %iterator, !3346, !DIExpression(), !3372)
    #dbg_declare(ptr %high, !3349, !DIExpression(), !3373)
  store i8 0, ptr %kind.dbg.spill, align 1, !dbg !3374
    #dbg_declare(ptr %kind.dbg.spill, !3356, !DIExpression(), !3374)
  store ptr @alloc_f0c0bcdc51174ae2a47538e8553750ac, ptr %pieces.dbg.spill, align 8, !dbg !3375
    #dbg_declare(ptr %pieces.dbg.spill, !3383, !DIExpression(), !3375)
  store ptr @alloc_11d257f5ed6cc7fc38feaa801053bac6, ptr %pieces.dbg.spill1, align 8, !dbg !3387
    #dbg_declare(ptr %pieces.dbg.spill1, !3390, !DIExpression(), !3387)
  store i8 1, ptr %_22, align 1, !dbg !3392
; invoke <core::iter::adapters::map::Map<I,F> as core::iter::traits::iterator::Iterator>::size_hint
  invoke void @"_ZN102_$LT$core..iter..adapters..map..Map$LT$I$C$F$GT$$u20$as$u20$core..iter..traits..iterator..Iterator$GT$9size_hint17h1b6d2b3223681e93E"(ptr sret([24 x i8]) align 8 %_5, ptr align 8 %iterator)
          to label %bb1 unwind label %cleanup, !dbg !3392

bb8:                                              ; preds = %cleanup
  %2 = load i8, ptr %_22, align 1, !dbg !3393
  %3 = trunc i8 %2 to i1, !dbg !3393
  br i1 %3, label %bb7, label %bb6, !dbg !3393

cleanup:                                          ; preds = %bb5, %bb3, %bb2, %start
  %4 = landingpad { ptr, i32 }
          cleanup
  %5 = extractvalue { ptr, i32 } %4, 0
  %6 = extractvalue { ptr, i32 } %4, 1
  store ptr %5, ptr %1, align 8
  %7 = getelementptr inbounds i8, ptr %1, i64 8
  store i32 %6, ptr %7, align 8
  br label %bb8

bb1:                                              ; preds = %start
  %low = load i64, ptr %_5, align 8, !dbg !3394
  store i64 %low, ptr %low.dbg.spill, align 8, !dbg !3394
    #dbg_declare(ptr %low.dbg.spill, !3347, !DIExpression(), !3395)
  %8 = getelementptr inbounds i8, ptr %_5, i64 8, !dbg !3396
  %9 = load i64, ptr %8, align 8, !dbg !3396
  %10 = getelementptr inbounds i8, ptr %8, i64 8, !dbg !3396
  %11 = load i64, ptr %10, align 8, !dbg !3396
  store i64 %9, ptr %high, align 8, !dbg !3396
  %12 = getelementptr inbounds i8, ptr %high, i64 8, !dbg !3396
  store i64 %11, ptr %12, align 8, !dbg !3396
  %_7 = load i64, ptr %high, align 8, !dbg !3397
  %13 = icmp eq i64 %_7, 1, !dbg !3398
  br i1 %13, label %bb2, label %bb5, !dbg !3398

bb2:                                              ; preds = %bb1
  %14 = getelementptr inbounds i8, ptr %high, i64 8, !dbg !3399
  %additional = load i64, ptr %14, align 8, !dbg !3399
  store i64 %additional, ptr %additional.dbg.spill, align 8, !dbg !3399
    #dbg_declare(ptr %additional.dbg.spill, !3350, !DIExpression(), !3399)
; invoke alloc::vec::Vec<T,A>::reserve
  invoke void @"_ZN5alloc3vec16Vec$LT$T$C$A$GT$7reserve17h3541c0f4833d93f5E"(ptr align 8 %self, i64 %additional, ptr align 8 %0)
          to label %bb3 unwind label %cleanup, !dbg !3400

bb5:                                              ; preds = %bb1
  store ptr @alloc_11d257f5ed6cc7fc38feaa801053bac6, ptr %_21, align 8, !dbg !3401
  %15 = getelementptr inbounds i8, ptr %_21, i64 8, !dbg !3401
  store i64 1, ptr %15, align 8, !dbg !3401
  %16 = load ptr, ptr @0, align 8, !dbg !3401
  %17 = load i64, ptr getelementptr inbounds (i8, ptr @0, i64 8), align 8, !dbg !3401
  %18 = getelementptr inbounds i8, ptr %_21, i64 32, !dbg !3401
  store ptr %16, ptr %18, align 8, !dbg !3401
  %19 = getelementptr inbounds i8, ptr %18, i64 8, !dbg !3401
  store i64 %17, ptr %19, align 8, !dbg !3401
  %20 = getelementptr inbounds i8, ptr %_21, i64 16, !dbg !3401
  store ptr inttoptr (i64 8 to ptr), ptr %20, align 8, !dbg !3401
  %21 = getelementptr inbounds i8, ptr %20, i64 8, !dbg !3401
  store i64 0, ptr %21, align 8, !dbg !3401
; invoke core::panicking::panic_fmt
  invoke void @_ZN4core9panicking9panic_fmt17h74866b78e934b1c0E(ptr align 8 %_21, ptr align 8 %0) #17
          to label %unreachable unwind label %cleanup, !dbg !3391

bb3:                                              ; preds = %bb2
  store ptr %self, ptr %self.dbg.spill2, align 8, !dbg !3402
    #dbg_declare(ptr %self.dbg.spill2, !3403, !DIExpression(), !3410)
  store ptr %self, ptr %self.dbg.spill3, align 8, !dbg !3412
    #dbg_declare(ptr %self.dbg.spill3, !3413, !DIExpression(), !3420)
    #dbg_declare(ptr %self.dbg.spill3, !3422, !DIExpression(), !3432)
  %22 = getelementptr inbounds i8, ptr %self, i64 8, !dbg !3434
  %self4 = load ptr, ptr %22, align 8, !dbg !3434
  store ptr %self4, ptr %self.dbg.spill5, align 8, !dbg !3434
    #dbg_declare(ptr %self.dbg.spill5, !3435, !DIExpression(), !3447)
    #dbg_declare(ptr %self.dbg.spill5, !3449, !DIExpression(), !3455)
    #dbg_declare(ptr %self.dbg.spill5, !3457, !DIExpression(), !3460)
  store ptr %self4, ptr %self.dbg.spill6, align 8, !dbg !3463
    #dbg_declare(ptr %self.dbg.spill6, !3464, !DIExpression(), !3470)
    #dbg_declare(ptr %self.dbg.spill6, !3472, !DIExpression(), !3478)
  store ptr %self4, ptr %ptr.dbg.spill, align 8, !dbg !3480
    #dbg_declare(ptr %ptr.dbg.spill, !3359, !DIExpression(), !3481)
  %len = getelementptr inbounds i8, ptr %self, i64 16, !dbg !3482
  store ptr %len, ptr %len.dbg.spill, align 8, !dbg !3482
    #dbg_declare(ptr %len.dbg.spill, !3483, !DIExpression(), !3490)
  %_31 = load i64, ptr %len, align 8, !dbg !3492
  store ptr %len, ptr %local_len.dbg.spill, align 8, !dbg !3493
  %23 = getelementptr inbounds i8, ptr %local_len.dbg.spill, i64 8, !dbg !3493
  store i64 %_31, ptr %23, align 8, !dbg !3493
    #dbg_declare(ptr %local_len.dbg.spill, !3361, !DIExpression(), !3494)
  store i8 0, ptr %_22, align 1, !dbg !3495
  call void @llvm.memcpy.p0.p0.i64(ptr align 8 %_18, ptr align 8 %iterator, i64 24, i1 false), !dbg !3495
  %24 = getelementptr inbounds i8, ptr %_19, i64 16, !dbg !3496
  store ptr %self4, ptr %24, align 8, !dbg !3496
  store ptr %len, ptr %_19, align 8, !dbg !3496
  %25 = getelementptr inbounds i8, ptr %_19, i64 8, !dbg !3496
  store i64 %_31, ptr %25, align 8, !dbg !3496
; invoke core::iter::traits::iterator::Iterator::for_each
  invoke void @_ZN4core4iter6traits8iterator8Iterator8for_each17he3571eda584eb282E(ptr align 8 %_18, ptr align 8 %_19)
          to label %bb4 unwind label %cleanup, !dbg !3495

bb4:                                              ; preds = %bb3
  ret void, !dbg !3497

unreachable:                                      ; preds = %bb5
  unreachable

bb9:                                              ; No predecessors!
  unreachable, !dbg !3498

bb6:                                              ; preds = %bb7, %bb8
  %26 = load ptr, ptr %1, align 8, !dbg !3498
  %27 = getelementptr inbounds i8, ptr %1, i64 8, !dbg !3498
  %28 = load i32, ptr %27, align 8, !dbg !3498
  %29 = insertvalue { ptr, i32 } poison, ptr %26, 0, !dbg !3498
  %30 = insertvalue { ptr, i32 } %29, i32 %28, 1, !dbg !3498
  resume { ptr, i32 } %30, !dbg !3498

bb7:                                              ; preds = %bb8
  br label %bb6, !dbg !3393
}

; alloc::vec::Vec<T,A>::extend_trusted::{{closure}}
; Function Attrs: inlinehint nonlazybind uwtable
define internal void @"_ZN5alloc3vec16Vec$LT$T$C$A$GT$14extend_trusted28_$u7b$$u7b$closure$u7d$$u7d$17h1c12bb388d7e98d1E"(ptr align 8 %_1, i32 %element) unnamed_addr #1 !dbg !3499 {
start:
  %self.dbg.spill2 = alloca [8 x i8], align 8
  %dst.dbg.spill = alloca [8 x i8], align 8
  %count.dbg.spill = alloca [8 x i8], align 8
  %self.dbg.spill1 = alloca [8 x i8], align 8
  %self.dbg.spill = alloca [8 x i8], align 8
  %increment.dbg.spill = alloca [8 x i8], align 8
  %element.dbg.spill = alloca [4 x i8], align 4
  %_1.dbg.spill = alloca [8 x i8], align 8
  store ptr %_1, ptr %_1.dbg.spill, align 8
    #dbg_declare(ptr %_1.dbg.spill, !3505, !DIExpression(DW_OP_deref, DW_OP_plus_uconst, 16), !3507)
    #dbg_declare(ptr %_1.dbg.spill, !3506, !DIExpression(DW_OP_deref), !3508)
  store i32 %element, ptr %element.dbg.spill, align 4
    #dbg_declare(ptr %element.dbg.spill, !3504, !DIExpression(), !3509)
    #dbg_declare(ptr %element.dbg.spill, !3510, !DIExpression(), !3516)
  store i64 1, ptr %increment.dbg.spill, align 8, !dbg !3518
    #dbg_declare(ptr %increment.dbg.spill, !3526, !DIExpression(), !3518)
  %0 = getelementptr inbounds i8, ptr %_1, i64 16, !dbg !3528
  %self = load ptr, ptr %0, align 8, !dbg !3528
  store ptr %self, ptr %self.dbg.spill, align 8, !dbg !3528
    #dbg_declare(ptr %self.dbg.spill, !3529, !DIExpression(), !3535)
  store ptr %_1, ptr %self.dbg.spill1, align 8, !dbg !3537
    #dbg_declare(ptr %self.dbg.spill1, !3538, !DIExpression(), !3545)
  %1 = getelementptr inbounds i8, ptr %_1, i64 8, !dbg !3547
  %count = load i64, ptr %1, align 8, !dbg !3547
  store i64 %count, ptr %count.dbg.spill, align 8, !dbg !3547
    #dbg_declare(ptr %count.dbg.spill, !3534, !DIExpression(), !3548)
  %dst = getelementptr inbounds i32, ptr %self, i64 %count, !dbg !3549
  store ptr %dst, ptr %dst.dbg.spill, align 8, !dbg !3549
    #dbg_declare(ptr %dst.dbg.spill, !3515, !DIExpression(), !3550)
  store i32 %element, ptr %dst, align 4, !dbg !3551
  store ptr %_1, ptr %self.dbg.spill2, align 8, !dbg !3552
    #dbg_declare(ptr %self.dbg.spill2, !3525, !DIExpression(), !3553)
  %2 = getelementptr inbounds i8, ptr %_1, i64 8, !dbg !3554
  %3 = getelementptr inbounds i8, ptr %_1, i64 8, !dbg !3554
  %4 = load i64, ptr %3, align 8, !dbg !3554
  %5 = add i64 %4, 1, !dbg !3554
  store i64 %5, ptr %2, align 8, !dbg !3554
  ret void, !dbg !3555
}

; alloc::vec::Vec<T,A>::extend_desugared
; Function Attrs: nonlazybind uwtable
define internal void @"_ZN5alloc3vec16Vec$LT$T$C$A$GT$16extend_desugared17h7675a98baf936683E"(ptr align 8 %self, ptr align 8 %iterator, ptr align 8 %0) unnamed_addr #0 personality ptr @rust_eh_personality !dbg !3556 {
start:
  %new_len.dbg.spill = alloca [8 x i8], align 8
  %dst.dbg.spill = alloca [8 x i8], align 8
  %self.dbg.spill9 = alloca [8 x i8], align 8
  %self.dbg.spill8 = alloca [8 x i8], align 8
  %self.dbg.spill7 = alloca [8 x i8], align 8
  %self.dbg.spill5 = alloca [8 x i8], align 8
  %self.dbg.spill4 = alloca [8 x i8], align 8
  %1 = alloca [8 x i8], align 8
  %lower.dbg.spill = alloca [8 x i8], align 8
  %elem_size.dbg.spill = alloca [8 x i8], align 8
  %self.dbg.spill2 = alloca [8 x i8], align 8
  %self.dbg.spill1 = alloca [8 x i8], align 8
  %len.dbg.spill = alloca [8 x i8], align 8
  %2 = alloca [16 x i8], align 8
  %rhs.dbg.spill = alloca [8 x i8], align 8
  %self.dbg.spill = alloca [8 x i8], align 8
  %src = alloca [24 x i8], align 8
  %_11 = alloca [24 x i8], align 8
  %_9 = alloca [8 x i8], align 8
  %element = alloca [24 x i8], align 8
  %_3 = alloca [24 x i8], align 8
  store ptr %self, ptr %self.dbg.spill, align 8
    #dbg_declare(ptr %self.dbg.spill, !3562, !DIExpression(), !3570)
    #dbg_declare(ptr %self.dbg.spill, !3571, !DIExpression(), !3575)
    #dbg_declare(ptr %self.dbg.spill, !3577, !DIExpression(), !3580)
    #dbg_declare(ptr %self.dbg.spill, !3582, !DIExpression(), !3585)
    #dbg_declare(ptr %self.dbg.spill, !3587, !DIExpression(), !3591)
    #dbg_declare(ptr %self.dbg.spill, !3577, !DIExpression(), !3593)
    #dbg_declare(ptr %iterator, !3563, !DIExpression(), !3595)
    #dbg_declare(ptr %element, !3564, !DIExpression(), !3596)
    #dbg_declare(ptr %src, !3597, !DIExpression(), !3601)
  store i64 1, ptr %rhs.dbg.spill, align 8, !dbg !3603
    #dbg_declare(ptr %rhs.dbg.spill, !3607, !DIExpression(), !3603)
  br label %bb1, !dbg !3609

bb1:                                              ; preds = %bb8, %start
; invoke <std::env::Args as core::iter::traits::iterator::Iterator>::next
  invoke void @"_ZN73_$LT$std..env..Args$u20$as$u20$core..iter..traits..iterator..Iterator$GT$4next17hb97f91f018a1a8bfE"(ptr sret([24 x i8]) align 8 %_3, ptr align 8 %iterator)
          to label %bb2 unwind label %cleanup, !dbg !3610

bb12:                                             ; preds = %bb14, %cleanup
; invoke core::ptr::drop_in_place<std::env::Args>
  invoke void @"_ZN4core3ptr35drop_in_place$LT$std..env..Args$GT$17hdc103e0386094e72E"(ptr align 8 %iterator) #18
          to label %bb13 unwind label %terminate, !dbg !3611

cleanup:                                          ; preds = %bb9, %bb1
  %3 = landingpad { ptr, i32 }
          cleanup
  %4 = extractvalue { ptr, i32 } %3, 0
  %5 = extractvalue { ptr, i32 } %3, 1
  store ptr %4, ptr %2, align 8
  %6 = getelementptr inbounds i8, ptr %2, i64 8
  store i32 %5, ptr %6, align 8
  br label %bb12

bb2:                                              ; preds = %bb1
  %7 = load i64, ptr %_3, align 8, !dbg !3610
  %8 = icmp eq i64 %7, -9223372036854775808, !dbg !3610
  %_5 = select i1 %8, i64 0, i64 1, !dbg !3610
  %9 = icmp eq i64 %_5, 1, !dbg !3612
  br i1 %9, label %bb3, label %bb9, !dbg !3612

bb3:                                              ; preds = %bb2
  call void @llvm.memcpy.p0.p0.i64(ptr align 8 %element, ptr align 8 %_3, i64 24, i1 false), !dbg !3596
  %10 = getelementptr inbounds i8, ptr %self, i64 16, !dbg !3613
  %len = load i64, ptr %10, align 8, !dbg !3613
  store i64 %len, ptr %len.dbg.spill, align 8, !dbg !3613
    #dbg_declare(ptr %len.dbg.spill, !3566, !DIExpression(), !3614)
    #dbg_declare(ptr %len.dbg.spill, !3615, !DIExpression(), !3621)
  store ptr %self, ptr %self.dbg.spill1, align 8, !dbg !3623
    #dbg_declare(ptr %self.dbg.spill1, !3624, !DIExpression(), !3630)
  store ptr %self, ptr %self.dbg.spill2, align 8, !dbg !3632
    #dbg_declare(ptr %self.dbg.spill2, !3633, !DIExpression(), !3640)
  store i64 24, ptr %elem_size.dbg.spill, align 8, !dbg !3642
    #dbg_declare(ptr %elem_size.dbg.spill, !3639, !DIExpression(), !3645)
  br label %bb17, !dbg !3646

bb9:                                              ; preds = %bb2
; invoke core::ptr::drop_in_place<core::option::Option<alloc::string::String>>
  invoke void @"_ZN4core3ptr70drop_in_place$LT$core..option..Option$LT$alloc..string..String$GT$$GT$17hbf3b1e1049579ab6E"(ptr align 8 %_3)
          to label %bb10 unwind label %cleanup, !dbg !3647

bb17:                                             ; preds = %bb3
  %11 = load i64, ptr %self, align 8, !dbg !3648
  store i64 %11, ptr %_9, align 8, !dbg !3648
  br label %bb15, !dbg !3649

bb16:                                             ; No predecessors!
  store i64 -1, ptr %_9, align 8, !dbg !3650
  br label %bb15, !dbg !3649

bb15:                                             ; preds = %bb17, %bb16
  %12 = load i64, ptr %_9, align 8, !dbg !3651
  %_8 = icmp eq i64 %len, %12, !dbg !3651
  br i1 %_8, label %bb4, label %bb7, !dbg !3651

bb7:                                              ; preds = %bb15
  br label %bb8, !dbg !3652

bb4:                                              ; preds = %bb15
; invoke <std::env::Args as core::iter::traits::iterator::Iterator>::size_hint
  invoke void @"_ZN73_$LT$std..env..Args$u20$as$u20$core..iter..traits..iterator..Iterator$GT$9size_hint17h238855071e9006b0E"(ptr sret([24 x i8]) align 8 %_11, ptr align 8 %iterator)
          to label %bb5 unwind label %cleanup3, !dbg !3653

bb8:                                              ; preds = %bb6, %bb7
  store ptr %self, ptr %self.dbg.spill4, align 8, !dbg !3654
    #dbg_declare(ptr %self.dbg.spill4, !3655, !DIExpression(), !3658)
  store ptr %self, ptr %self.dbg.spill5, align 8, !dbg !3660
    #dbg_declare(ptr %self.dbg.spill5, !3661, !DIExpression(), !3664)
    #dbg_declare(ptr %self.dbg.spill5, !3666, !DIExpression(), !3669)
  %13 = getelementptr inbounds i8, ptr %self, i64 8, !dbg !3671
  %self6 = load ptr, ptr %13, align 8, !dbg !3671
  store ptr %self6, ptr %self.dbg.spill7, align 8, !dbg !3671
    #dbg_declare(ptr %self.dbg.spill7, !3672, !DIExpression(), !3675)
    #dbg_declare(ptr %self.dbg.spill7, !3677, !DIExpression(), !3680)
    #dbg_declare(ptr %self.dbg.spill7, !3682, !DIExpression(), !3685)
  store ptr %self6, ptr %self.dbg.spill8, align 8, !dbg !3687
    #dbg_declare(ptr %self.dbg.spill8, !3688, !DIExpression(), !3691)
    #dbg_declare(ptr %self.dbg.spill8, !3693, !DIExpression(), !3696)
  store ptr %self6, ptr %self.dbg.spill9, align 8, !dbg !3698
    #dbg_declare(ptr %self.dbg.spill9, !3620, !DIExpression(), !3699)
  %dst = getelementptr inbounds %"alloc::string::String", ptr %self6, i64 %len, !dbg !3700
  store ptr %dst, ptr %dst.dbg.spill, align 8, !dbg !3700
    #dbg_declare(ptr %dst.dbg.spill, !3600, !DIExpression(), !3701)
  call void @llvm.memcpy.p0.p0.i64(ptr align 8 %src, ptr align 8 %element, i64 24, i1 false), !dbg !3702
  call void @llvm.memcpy.p0.p0.i64(ptr align 8 %dst, ptr align 8 %src, i64 24, i1 false), !dbg !3703
  %new_len = add i64 %len, 1, !dbg !3704
  store i64 %new_len, ptr %new_len.dbg.spill, align 8, !dbg !3704
    #dbg_declare(ptr %new_len.dbg.spill, !3590, !DIExpression(), !3705)
  %14 = getelementptr inbounds i8, ptr %self, i64 16, !dbg !3706
  store i64 %new_len, ptr %14, align 8, !dbg !3706
  br label %bb1, !dbg !3609

bb14:                                             ; preds = %cleanup3
; invoke core::ptr::drop_in_place<alloc::string::String>
  invoke void @"_ZN4core3ptr42drop_in_place$LT$alloc..string..String$GT$17hc9872b1fb13f053eE"(ptr align 8 %element) #18
          to label %bb12 unwind label %terminate, !dbg !3647

cleanup3:                                         ; preds = %bb5, %bb4
  %15 = landingpad { ptr, i32 }
          cleanup
  %16 = extractvalue { ptr, i32 } %15, 0
  %17 = extractvalue { ptr, i32 } %15, 1
  store ptr %16, ptr %2, align 8
  %18 = getelementptr inbounds i8, ptr %2, i64 8
  store i32 %17, ptr %18, align 8
  br label %bb14

bb5:                                              ; preds = %bb4
  %lower = load i64, ptr %_11, align 8, !dbg !3707
  store i64 %lower, ptr %lower.dbg.spill, align 8, !dbg !3707
    #dbg_declare(ptr %lower.dbg.spill, !3568, !DIExpression(), !3708)
    #dbg_declare(ptr %lower.dbg.spill, !3606, !DIExpression(), !3709)
  %19 = call i64 @llvm.uadd.sat.i64(i64 %lower, i64 1), !dbg !3710
  store i64 %19, ptr %1, align 8, !dbg !3710
  %_14 = load i64, ptr %1, align 8, !dbg !3710
; invoke alloc::vec::Vec<T,A>::reserve
  invoke void @"_ZN5alloc3vec16Vec$LT$T$C$A$GT$7reserve17h5d7f0febc676fac8E"(ptr align 8 %self, i64 %_14, ptr align 8 %0)
          to label %bb6 unwind label %cleanup3, !dbg !3711

bb6:                                              ; preds = %bb5
  br label %bb8, !dbg !3652

terminate:                                        ; preds = %bb12, %bb14
  %20 = landingpad { ptr, i32 }
          filter [0 x ptr] zeroinitializer
  %21 = extractvalue { ptr, i32 } %20, 0
  %22 = extractvalue { ptr, i32 } %20, 1
; call core::panicking::panic_in_cleanup
  call void @_ZN4core9panicking16panic_in_cleanup17h219356accc837b92E() #19, !dbg !3712
  unreachable, !dbg !3712

bb10:                                             ; preds = %bb9
; call core::ptr::drop_in_place<std::env::Args>
  call void @"_ZN4core3ptr35drop_in_place$LT$std..env..Args$GT$17hdc103e0386094e72E"(ptr align 8 %iterator), !dbg !3611
  ret void, !dbg !3713

bb19:                                             ; No predecessors!
  unreachable, !dbg !3712

bb13:                                             ; preds = %bb12
  %23 = load ptr, ptr %2, align 8, !dbg !3712
  %24 = getelementptr inbounds i8, ptr %2, i64 8, !dbg !3712
  %25 = load i32, ptr %24, align 8, !dbg !3712
  %26 = insertvalue { ptr, i32 } poison, ptr %23, 0, !dbg !3712
  %27 = insertvalue { ptr, i32 } %26, i32 %25, 1, !dbg !3712
  resume { ptr, i32 } %27, !dbg !3712
}

; alloc::vec::Vec<T,A>::len
; Function Attrs: inlinehint nonlazybind uwtable
define internal i64 @"_ZN5alloc3vec16Vec$LT$T$C$A$GT$3len17h353ea998026159f6E"(ptr align 8 %self) unnamed_addr #1 !dbg !3714 {
start:
  %self.dbg.spill = alloca [8 x i8], align 8
  store ptr %self, ptr %self.dbg.spill, align 8
    #dbg_declare(ptr %self.dbg.spill, !3716, !DIExpression(), !3717)
  %0 = getelementptr inbounds i8, ptr %self, i64 16, !dbg !3718
  %_0 = load i64, ptr %0, align 8, !dbg !3718
  ret i64 %_0, !dbg !3719
}

; alloc::vec::Vec<T,A>::reserve
; Function Attrs: nonlazybind uwtable
define internal void @"_ZN5alloc3vec16Vec$LT$T$C$A$GT$7reserve17h3541c0f4833d93f5E"(ptr align 8 %self, i64 %additional, ptr align 8 %0) unnamed_addr #0 !dbg !3720 {
start:
  %elem_size.dbg.spill = alloca [8 x i8], align 8
  %self.dbg.spill4 = alloca [8 x i8], align 8
  %elem_layout.dbg.spill = alloca [16 x i8], align 8
  %self.dbg.spill3 = alloca [8 x i8], align 8
  %len.dbg.spill = alloca [8 x i8], align 8
  %self.dbg.spill2 = alloca [8 x i8], align 8
  %additional.dbg.spill = alloca [8 x i8], align 8
  %self.dbg.spill = alloca [8 x i8], align 8
  %self1 = alloca [8 x i8], align 8
  %elem_layout = alloca [16 x i8], align 8
  store ptr %self, ptr %self.dbg.spill, align 8
    #dbg_declare(ptr %self.dbg.spill, !3725, !DIExpression(), !3727)
  store i64 %additional, ptr %additional.dbg.spill, align 8
    #dbg_declare(ptr %additional.dbg.spill, !3726, !DIExpression(), !3728)
    #dbg_declare(ptr %additional.dbg.spill, !3729, !DIExpression(), !3738)
    #dbg_declare(ptr %additional.dbg.spill, !3740, !DIExpression(), !3759)
    #dbg_declare(ptr %additional.dbg.spill, !3761, !DIExpression(), !3770)
    #dbg_declare(ptr %elem_layout, !3769, !DIExpression(), !3772)
    #dbg_declare(ptr %self1, !3773, !DIExpression(), !3777)
  store ptr %self, ptr %self.dbg.spill2, align 8, !dbg !3779
    #dbg_declare(ptr %self.dbg.spill2, !3736, !DIExpression(), !3780)
  %1 = getelementptr inbounds i8, ptr %self, i64 16, !dbg !3781
  %len = load i64, ptr %1, align 8, !dbg !3781
  store i64 %len, ptr %len.dbg.spill, align 8, !dbg !3781
    #dbg_declare(ptr %len.dbg.spill, !3737, !DIExpression(), !3782)
    #dbg_declare(ptr %len.dbg.spill, !3757, !DIExpression(), !3783)
    #dbg_declare(ptr %len.dbg.spill, !3768, !DIExpression(), !3784)
    #dbg_declare(ptr %len.dbg.spill, !3776, !DIExpression(), !3785)
  store ptr %self, ptr %self.dbg.spill3, align 8, !dbg !3786
    #dbg_declare(ptr %self.dbg.spill3, !3756, !DIExpression(), !3787)
    #dbg_declare(ptr %self.dbg.spill3, !3767, !DIExpression(), !3788)
    #dbg_declare(ptr %self.dbg.spill3, !3789, !DIExpression(), !3793)
  store i64 4, ptr %elem_layout.dbg.spill, align 8, !dbg !3760
  %2 = getelementptr inbounds i8, ptr %elem_layout.dbg.spill, i64 8, !dbg !3760
  store i64 4, ptr %2, align 8, !dbg !3760
    #dbg_declare(ptr %elem_layout.dbg.spill, !3758, !DIExpression(), !3795)
  store i64 4, ptr %elem_layout, align 8, !dbg !3796
  %3 = getelementptr inbounds i8, ptr %elem_layout, i64 8, !dbg !3796
  store i64 4, ptr %3, align 8, !dbg !3796
  store ptr %elem_layout, ptr %self.dbg.spill4, align 8, !dbg !3797
    #dbg_declare(ptr %self.dbg.spill4, !3798, !DIExpression(), !3806)
  store i64 4, ptr %elem_size.dbg.spill, align 8, !dbg !3808
    #dbg_declare(ptr %elem_size.dbg.spill, !3792, !DIExpression(), !3809)
  br label %bb6, !dbg !3810

bb6:                                              ; preds = %start
  %4 = load i64, ptr %self, align 8, !dbg !3811
  store i64 %4, ptr %self1, align 8, !dbg !3811
  br label %bb4, !dbg !3812

bb5:                                              ; No predecessors!
  store i64 -1, ptr %self1, align 8, !dbg !3813
  br label %bb4, !dbg !3812

bb4:                                              ; preds = %bb6, %bb5
  %5 = load i64, ptr %self1, align 8, !dbg !3814
  %_10 = sub i64 %5, %len, !dbg !3814
  %_7 = icmp ugt i64 %additional, %_10, !dbg !3815
  br i1 %_7, label %bb1, label %bb2, !dbg !3816

bb2:                                              ; preds = %bb4
  br label %bb3, !dbg !3817

bb1:                                              ; preds = %bb4
; call alloc::raw_vec::RawVecInner<A>::reserve::do_reserve_and_handle
  call void @"_ZN5alloc7raw_vec20RawVecInner$LT$A$GT$7reserve21do_reserve_and_handle17hf3cbe7f2d92ea499E"(ptr align 8 %self, i64 %len, i64 %additional, i64 4, i64 4), !dbg !3818
  br label %bb3, !dbg !3818

bb3:                                              ; preds = %bb1, %bb2
  ret void, !dbg !3819
}

; alloc::vec::Vec<T,A>::reserve
; Function Attrs: nonlazybind uwtable
define internal void @"_ZN5alloc3vec16Vec$LT$T$C$A$GT$7reserve17h5d7f0febc676fac8E"(ptr align 8 %self, i64 %additional, ptr align 8 %0) unnamed_addr #0 !dbg !3820 {
start:
  %elem_size.dbg.spill = alloca [8 x i8], align 8
  %self.dbg.spill4 = alloca [8 x i8], align 8
  %elem_layout.dbg.spill = alloca [16 x i8], align 8
  %self.dbg.spill3 = alloca [8 x i8], align 8
  %len.dbg.spill = alloca [8 x i8], align 8
  %self.dbg.spill2 = alloca [8 x i8], align 8
  %additional.dbg.spill = alloca [8 x i8], align 8
  %self.dbg.spill = alloca [8 x i8], align 8
  %self1 = alloca [8 x i8], align 8
  %elem_layout = alloca [16 x i8], align 8
  store ptr %self, ptr %self.dbg.spill, align 8
    #dbg_declare(ptr %self.dbg.spill, !3825, !DIExpression(), !3827)
  store i64 %additional, ptr %additional.dbg.spill, align 8
    #dbg_declare(ptr %additional.dbg.spill, !3826, !DIExpression(), !3828)
    #dbg_declare(ptr %additional.dbg.spill, !3829, !DIExpression(), !3838)
    #dbg_declare(ptr %additional.dbg.spill, !3840, !DIExpression(), !3846)
    #dbg_declare(ptr %additional.dbg.spill, !3848, !DIExpression(), !3854)
    #dbg_declare(ptr %elem_layout, !3853, !DIExpression(), !3856)
    #dbg_declare(ptr %self1, !3857, !DIExpression(), !3861)
  store ptr %self, ptr %self.dbg.spill2, align 8, !dbg !3863
    #dbg_declare(ptr %self.dbg.spill2, !3836, !DIExpression(), !3864)
  %1 = getelementptr inbounds i8, ptr %self, i64 16, !dbg !3865
  %len = load i64, ptr %1, align 8, !dbg !3865
  store i64 %len, ptr %len.dbg.spill, align 8, !dbg !3865
    #dbg_declare(ptr %len.dbg.spill, !3837, !DIExpression(), !3866)
    #dbg_declare(ptr %len.dbg.spill, !3844, !DIExpression(), !3867)
    #dbg_declare(ptr %len.dbg.spill, !3852, !DIExpression(), !3868)
    #dbg_declare(ptr %len.dbg.spill, !3860, !DIExpression(), !3869)
  store ptr %self, ptr %self.dbg.spill3, align 8, !dbg !3870
    #dbg_declare(ptr %self.dbg.spill3, !3843, !DIExpression(), !3871)
    #dbg_declare(ptr %self.dbg.spill3, !3851, !DIExpression(), !3872)
    #dbg_declare(ptr %self.dbg.spill3, !3873, !DIExpression(), !3877)
  store i64 8, ptr %elem_layout.dbg.spill, align 8, !dbg !3847
  %2 = getelementptr inbounds i8, ptr %elem_layout.dbg.spill, i64 8, !dbg !3847
  store i64 24, ptr %2, align 8, !dbg !3847
    #dbg_declare(ptr %elem_layout.dbg.spill, !3845, !DIExpression(), !3879)
  store i64 8, ptr %elem_layout, align 8, !dbg !3880
  %3 = getelementptr inbounds i8, ptr %elem_layout, i64 8, !dbg !3880
  store i64 24, ptr %3, align 8, !dbg !3880
  store ptr %elem_layout, ptr %self.dbg.spill4, align 8, !dbg !3881
    #dbg_declare(ptr %self.dbg.spill4, !3882, !DIExpression(), !3885)
  store i64 24, ptr %elem_size.dbg.spill, align 8, !dbg !3887
    #dbg_declare(ptr %elem_size.dbg.spill, !3876, !DIExpression(), !3888)
  br label %bb6, !dbg !3889

bb6:                                              ; preds = %start
  %4 = load i64, ptr %self, align 8, !dbg !3890
  store i64 %4, ptr %self1, align 8, !dbg !3890
  br label %bb4, !dbg !3891

bb5:                                              ; No predecessors!
  store i64 -1, ptr %self1, align 8, !dbg !3892
  br label %bb4, !dbg !3891

bb4:                                              ; preds = %bb6, %bb5
  %5 = load i64, ptr %self1, align 8, !dbg !3893
  %_10 = sub i64 %5, %len, !dbg !3893
  %_7 = icmp ugt i64 %additional, %_10, !dbg !3894
  br i1 %_7, label %bb1, label %bb2, !dbg !3895

bb2:                                              ; preds = %bb4
  br label %bb3, !dbg !3896

bb1:                                              ; preds = %bb4
; call alloc::raw_vec::RawVecInner<A>::reserve::do_reserve_and_handle
  call void @"_ZN5alloc7raw_vec20RawVecInner$LT$A$GT$7reserve21do_reserve_and_handle17hf3cbe7f2d92ea499E"(ptr align 8 %self, i64 %len, i64 %additional, i64 8, i64 24), !dbg !3897
  br label %bb3, !dbg !3897

bb3:                                              ; preds = %bb1, %bb2
  ret void, !dbg !3898
}

; alloc::string::String::as_str
; Function Attrs: inlinehint nonlazybind uwtable
define internal { ptr, i64 } @_ZN5alloc6string6String6as_str17h1dc2803db36241d2E(ptr align 8 %self) unnamed_addr #1 !dbg !3899 {
start:
  %v.dbg.spill = alloca [16 x i8], align 8
  %len.dbg.spill = alloca [8 x i8], align 8
  %self.dbg.spill6 = alloca [8 x i8], align 8
  %data.dbg.spill = alloca [8 x i8], align 8
  %self.dbg.spill5 = alloca [8 x i8], align 8
  %self.dbg.spill3 = alloca [8 x i8], align 8
  %self.dbg.spill2 = alloca [8 x i8], align 8
  %self.dbg.spill1 = alloca [8 x i8], align 8
  %self.dbg.spill = alloca [8 x i8], align 8
  store ptr %self, ptr %self.dbg.spill, align 8
    #dbg_declare(ptr %self.dbg.spill, !3906, !DIExpression(), !3907)
  store ptr %self, ptr %self.dbg.spill1, align 8, !dbg !3908
    #dbg_declare(ptr %self.dbg.spill1, !3909, !DIExpression(), !3916)
    #dbg_declare(ptr %self.dbg.spill1, !3918, !DIExpression(), !3924)
  store ptr %self, ptr %self.dbg.spill2, align 8, !dbg !3926
    #dbg_declare(ptr %self.dbg.spill2, !3927, !DIExpression(), !3934)
  store ptr %self, ptr %self.dbg.spill3, align 8, !dbg !3936
    #dbg_declare(ptr %self.dbg.spill3, !3937, !DIExpression(), !3944)
    #dbg_declare(ptr %self.dbg.spill3, !3946, !DIExpression(), !3952)
  %0 = getelementptr inbounds i8, ptr %self, i64 8, !dbg !3954
  %self4 = load ptr, ptr %0, align 8, !dbg !3954
  store ptr %self4, ptr %self.dbg.spill5, align 8, !dbg !3954
    #dbg_declare(ptr %self.dbg.spill5, !3955, !DIExpression(), !3962)
    #dbg_declare(ptr %self.dbg.spill5, !3964, !DIExpression(), !3970)
    #dbg_declare(ptr %self.dbg.spill5, !3972, !DIExpression(), !3975)
  store ptr %self4, ptr %data.dbg.spill, align 8, !dbg !3977
    #dbg_declare(ptr %data.dbg.spill, !3978, !DIExpression(), !3984)
    #dbg_declare(ptr %data.dbg.spill, !3986, !DIExpression(), !3996)
    #dbg_declare(ptr %data.dbg.spill, !3998, !DIExpression(), !4006)
  store ptr %self4, ptr %self.dbg.spill6, align 8, !dbg !4008
    #dbg_declare(ptr %self.dbg.spill6, !4009, !DIExpression(), !4015)
    #dbg_declare(ptr %self.dbg.spill6, !3972, !DIExpression(), !4017)
  %1 = getelementptr inbounds i8, ptr %self, i64 16, !dbg !4019
  %len = load i64, ptr %1, align 8, !dbg !4019
  store i64 %len, ptr %len.dbg.spill, align 8, !dbg !4019
    #dbg_declare(ptr %len.dbg.spill, !3983, !DIExpression(), !4020)
    #dbg_declare(ptr %len.dbg.spill, !3995, !DIExpression(), !4021)
    #dbg_declare(ptr %len.dbg.spill, !4003, !DIExpression(), !4022)
  br label %bb1, !dbg !4023

bb1:                                              ; preds = %start
; call core::slice::raw::from_raw_parts::precondition_check
  call void @_ZN4core5slice3raw14from_raw_parts18precondition_check17h9deebabb14a3bb07E(ptr %self4, i64 1, i64 1, i64 %len) #16, !dbg !4025
  br label %bb3, !dbg !4026

bb3:                                              ; preds = %bb1
  store ptr %self4, ptr %v.dbg.spill, align 8, !dbg !4027
  %2 = getelementptr inbounds i8, ptr %v.dbg.spill, i64 8, !dbg !4027
  store i64 %len, ptr %2, align 8, !dbg !4027
    #dbg_declare(ptr %v.dbg.spill, !4028, !DIExpression(), !4035)
  %3 = insertvalue { ptr, i64 } poison, ptr %self4, 0, !dbg !4037
  %4 = insertvalue { ptr, i64 } %3, i64 %len, 1, !dbg !4037
  ret { ptr, i64 } %4, !dbg !4037
}

